ARM GAS  /var/folders/4h/7vm9s8w13t95ghm4btcrtdl80000gn/T//ccWDnQ7t.s 			page 1


   1              		.cpu cortex-m0
   2              		.arch armv6s-m
   3              		.fpu softvfp
   4              		.eabi_attribute 20, 1
   5              		.eabi_attribute 21, 1
   6              		.eabi_attribute 23, 3
   7              		.eabi_attribute 24, 1
   8              		.eabi_attribute 25, 1
   9              		.eabi_attribute 26, 1
  10              		.eabi_attribute 30, 1
  11              		.eabi_attribute 34, 0
  12              		.eabi_attribute 18, 4
  13              		.file	"adc.c"
  14              		.text
  15              	.Ltext0:
  16              		.cfi_sections	.debug_frame
  17              		.file 1 "Src/adc.c"
  18              		.section	.text.MX_ADC_Init,"ax",%progbits
  19              		.align	1
  20              		.global	MX_ADC_Init
  21              		.syntax unified
  22              		.code	16
  23              		.thumb_func
  25              	MX_ADC_Init:
  26              	.LFB43:
   1:Src/adc.c     **** /* USER CODE BEGIN Header */
   2:Src/adc.c     **** /**
   3:Src/adc.c     ****   ******************************************************************************
   4:Src/adc.c     ****   * @file    adc.c
   5:Src/adc.c     ****   * @brief   This file provides code for the configuration
   6:Src/adc.c     ****   *          of the ADC instances.
   7:Src/adc.c     ****   ******************************************************************************
   8:Src/adc.c     ****   * @attention
   9:Src/adc.c     ****   *
  10:Src/adc.c     ****   * Copyright (c) 2024 STMicroelectronics.
  11:Src/adc.c     ****   * All rights reserved.
  12:Src/adc.c     ****   *
  13:Src/adc.c     ****   * This software is licensed under terms that can be found in the LICENSE file
  14:Src/adc.c     ****   * in the root directory of this software component.
  15:Src/adc.c     ****   * If no LICENSE file comes with this software, it is provided AS-IS.
  16:Src/adc.c     ****   *
  17:Src/adc.c     ****   ******************************************************************************
  18:Src/adc.c     ****   */
  19:Src/adc.c     **** /* USER CODE END Header */
  20:Src/adc.c     **** /* Includes ------------------------------------------------------------------*/
  21:Src/adc.c     **** #include "adc.h"
  22:Src/adc.c     **** 
  23:Src/adc.c     **** /* USER CODE BEGIN 0 */
  24:Src/adc.c     **** /* USER CODE END 0 */
  25:Src/adc.c     **** 
  26:Src/adc.c     **** ADC_HandleTypeDef hadc;
  27:Src/adc.c     **** 
  28:Src/adc.c     **** /* ADC init function */
  29:Src/adc.c     **** void MX_ADC_Init(void)
  30:Src/adc.c     **** {
  27              		.loc 1 30 1 view -0
  28              		.cfi_startproc
ARM GAS  /var/folders/4h/7vm9s8w13t95ghm4btcrtdl80000gn/T//ccWDnQ7t.s 			page 2


  29              		@ args = 0, pretend = 0, frame = 0
  30              		@ frame_needed = 0, uses_anonymous_args = 0
  31 0000 10B5     		push	{r4, lr}
  32              	.LCFI0:
  33              		.cfi_def_cfa_offset 8
  34              		.cfi_offset 4, -8
  35              		.cfi_offset 14, -4
  31:Src/adc.c     **** 
  32:Src/adc.c     ****   /* USER CODE BEGIN ADC_Init 0 */
  33:Src/adc.c     **** 
  34:Src/adc.c     ****   /* USER CODE END ADC_Init 0 */
  35:Src/adc.c     **** 
  36:Src/adc.c     ****   /* USER CODE BEGIN ADC_Init 1 */
  37:Src/adc.c     **** 
  38:Src/adc.c     ****   /* USER CODE END ADC_Init 1 */
  39:Src/adc.c     **** 
  40:Src/adc.c     ****   /** Configure the global features of the ADC (Clock, Resolution, Data Alignment and number of con
  41:Src/adc.c     ****   */
  42:Src/adc.c     ****   hadc.Instance = ADC1;
  36              		.loc 1 42 3 view .LVU1
  37              		.loc 1 42 17 is_stmt 0 view .LVU2
  38 0002 0F48     		ldr	r0, .L4
  39 0004 0F4B     		ldr	r3, .L4+4
  40 0006 0360     		str	r3, [r0]
  43:Src/adc.c     ****   hadc.Init.ClockPrescaler = ADC_CLOCK_ASYNC_DIV1;
  41              		.loc 1 43 3 is_stmt 1 view .LVU3
  42              		.loc 1 43 28 is_stmt 0 view .LVU4
  43 0008 0023     		movs	r3, #0
  44 000a 4360     		str	r3, [r0, #4]
  44:Src/adc.c     ****   hadc.Init.Resolution = ADC_RESOLUTION_12B;
  45              		.loc 1 44 3 is_stmt 1 view .LVU5
  46              		.loc 1 44 24 is_stmt 0 view .LVU6
  47 000c 8360     		str	r3, [r0, #8]
  45:Src/adc.c     ****   hadc.Init.DataAlign = ADC_DATAALIGN_RIGHT;
  48              		.loc 1 45 3 is_stmt 1 view .LVU7
  49              		.loc 1 45 23 is_stmt 0 view .LVU8
  50 000e C360     		str	r3, [r0, #12]
  46:Src/adc.c     ****   hadc.Init.ScanConvMode = ADC_SCAN_ENABLE;
  51              		.loc 1 46 3 is_stmt 1 view .LVU9
  52              		.loc 1 46 26 is_stmt 0 view .LVU10
  53 0010 0122     		movs	r2, #1
  54 0012 0261     		str	r2, [r0, #16]
  47:Src/adc.c     ****   hadc.Init.EOCSelection = ADC_EOC_SINGLE_CONV;
  55              		.loc 1 47 3 is_stmt 1 view .LVU11
  56              		.loc 1 47 26 is_stmt 0 view .LVU12
  57 0014 0421     		movs	r1, #4
  58 0016 4161     		str	r1, [r0, #20]
  48:Src/adc.c     ****   hadc.Init.LowPowerAutoWait = DISABLE;
  59              		.loc 1 48 3 is_stmt 1 view .LVU13
  60              		.loc 1 48 30 is_stmt 0 view .LVU14
  61 0018 0376     		strb	r3, [r0, #24]
  49:Src/adc.c     ****   hadc.Init.LowPowerAutoPowerOff = DISABLE;
  62              		.loc 1 49 3 is_stmt 1 view .LVU15
  63              		.loc 1 49 34 is_stmt 0 view .LVU16
  64 001a 4376     		strb	r3, [r0, #25]
  50:Src/adc.c     ****   hadc.Init.ContinuousConvMode = ENABLE;
  65              		.loc 1 50 3 is_stmt 1 view .LVU17
ARM GAS  /var/folders/4h/7vm9s8w13t95ghm4btcrtdl80000gn/T//ccWDnQ7t.s 			page 3


  66              		.loc 1 50 32 is_stmt 0 view .LVU18
  67 001c 8276     		strb	r2, [r0, #26]
  51:Src/adc.c     ****   hadc.Init.DiscontinuousConvMode = DISABLE;
  68              		.loc 1 51 3 is_stmt 1 view .LVU19
  69              		.loc 1 51 35 is_stmt 0 view .LVU20
  70 001e C376     		strb	r3, [r0, #27]
  52:Src/adc.c     ****   hadc.Init.ExternalTrigConv = ADC_SOFTWARE_START;
  71              		.loc 1 52 3 is_stmt 1 view .LVU21
  72              		.loc 1 52 30 is_stmt 0 view .LVU22
  73 0020 C221     		movs	r1, #194
  74 0022 FF31     		adds	r1, r1, #255
  75 0024 C161     		str	r1, [r0, #28]
  53:Src/adc.c     ****   hadc.Init.ExternalTrigConvEdge = ADC_EXTERNALTRIGCONVEDGE_NONE;
  76              		.loc 1 53 3 is_stmt 1 view .LVU23
  77              		.loc 1 53 34 is_stmt 0 view .LVU24
  78 0026 0362     		str	r3, [r0, #32]
  54:Src/adc.c     ****   hadc.Init.DMAContinuousRequests = DISABLE;
  79              		.loc 1 54 3 is_stmt 1 view .LVU25
  80              		.loc 1 54 35 is_stmt 0 view .LVU26
  81 0028 9E39     		subs	r1, r1, #158
  82 002a FF39     		subs	r1, r1, #255
  83 002c 4354     		strb	r3, [r0, r1]
  55:Src/adc.c     ****   hadc.Init.Overrun = ADC_OVR_DATA_PRESERVED;
  84              		.loc 1 55 3 is_stmt 1 view .LVU27
  85              		.loc 1 55 21 is_stmt 0 view .LVU28
  86 002e 8262     		str	r2, [r0, #40]
  56:Src/adc.c     ****   if (HAL_ADC_Init(&hadc) != HAL_OK)
  87              		.loc 1 56 3 is_stmt 1 view .LVU29
  88              		.loc 1 56 7 is_stmt 0 view .LVU30
  89 0030 FFF7FEFF 		bl	HAL_ADC_Init
  90              	.LVL0:
  91              		.loc 1 56 6 discriminator 1 view .LVU31
  92 0034 0028     		cmp	r0, #0
  93 0036 00D1     		bne	.L3
  94              	.L1:
  57:Src/adc.c     ****   {
  58:Src/adc.c     ****     Error_Handler();
  59:Src/adc.c     ****   }
  60:Src/adc.c     **** 
  61:Src/adc.c     ****   // /** Configure for the selected ADC regular channel to be converted.
  62:Src/adc.c     ****   // */
  63:Src/adc.c     ****   // sConfig.Channel = ADC_CHANNEL_0;
  64:Src/adc.c     ****   // sConfig.Rank = ADC_RANK_CHANNEL_NUMBER;
  65:Src/adc.c     ****   // sConfig.SamplingTime = ADC_SAMPLETIME_1CYCLE_5;
  66:Src/adc.c     ****   // if (HAL_ADC_ConfigChannel(&hadc, &sConfig) != HAL_OK)
  67:Src/adc.c     ****   // {
  68:Src/adc.c     ****   //   Error_Handler();
  69:Src/adc.c     ****   // }
  70:Src/adc.c     ****   //
  71:Src/adc.c     ****   // /** Configure for the selected ADC regular channel to be converted.
  72:Src/adc.c     ****   // */
  73:Src/adc.c     ****   // sConfig.Channel = ADC_CHANNEL_1;
  74:Src/adc.c     ****   // if (HAL_ADC_ConfigChannel(&hadc, &sConfig) != HAL_OK)
  75:Src/adc.c     ****   // {
  76:Src/adc.c     ****   //   Error_Handler();
  77:Src/adc.c     ****   // }
  78:Src/adc.c     ****   // /* USER CODE BEGIN ADC_Init 2 */
ARM GAS  /var/folders/4h/7vm9s8w13t95ghm4btcrtdl80000gn/T//ccWDnQ7t.s 			page 4


  79:Src/adc.c     ****   //
  80:Src/adc.c     ****   // /* USER CODE END ADC_Init 2 */
  81:Src/adc.c     **** 
  82:Src/adc.c     **** }
  95              		.loc 1 82 1 view .LVU32
  96              		@ sp needed
  97 0038 10BD     		pop	{r4, pc}
  98              	.L3:
  58:Src/adc.c     ****   }
  99              		.loc 1 58 5 is_stmt 1 view .LVU33
 100 003a FFF7FEFF 		bl	Error_Handler
 101              	.LVL1:
 102              		.loc 1 82 1 is_stmt 0 view .LVU34
 103 003e FBE7     		b	.L1
 104              	.L5:
 105              		.align	2
 106              	.L4:
 107 0040 00000000 		.word	hadc
 108 0044 00240140 		.word	1073816576
 109              		.cfi_endproc
 110              	.LFE43:
 112              		.section	.text.HAL_ADC_MspInit,"ax",%progbits
 113              		.align	1
 114              		.global	HAL_ADC_MspInit
 115              		.syntax unified
 116              		.code	16
 117              		.thumb_func
 119              	HAL_ADC_MspInit:
 120              	.LVL2:
 121              	.LFB44:
  83:Src/adc.c     **** 
  84:Src/adc.c     **** void HAL_ADC_MspInit(ADC_HandleTypeDef* adcHandle)
  85:Src/adc.c     **** {
 122              		.loc 1 85 1 is_stmt 1 view -0
 123              		.cfi_startproc
 124              		@ args = 0, pretend = 0, frame = 32
 125              		@ frame_needed = 0, uses_anonymous_args = 0
 126              		.loc 1 85 1 is_stmt 0 view .LVU36
 127 0000 10B5     		push	{r4, lr}
 128              	.LCFI1:
 129              		.cfi_def_cfa_offset 8
 130              		.cfi_offset 4, -8
 131              		.cfi_offset 14, -4
 132 0002 88B0     		sub	sp, sp, #32
 133              	.LCFI2:
 134              		.cfi_def_cfa_offset 40
 135 0004 0400     		movs	r4, r0
  86:Src/adc.c     **** 
  87:Src/adc.c     ****   GPIO_InitTypeDef GPIO_InitStruct = {0};
 136              		.loc 1 87 3 is_stmt 1 view .LVU37
 137              		.loc 1 87 20 is_stmt 0 view .LVU38
 138 0006 1422     		movs	r2, #20
 139 0008 0021     		movs	r1, #0
 140 000a 03A8     		add	r0, sp, #12
 141              	.LVL3:
 142              		.loc 1 87 20 view .LVU39
 143 000c FFF7FEFF 		bl	memset
ARM GAS  /var/folders/4h/7vm9s8w13t95ghm4btcrtdl80000gn/T//ccWDnQ7t.s 			page 5


 144              	.LVL4:
  88:Src/adc.c     ****   if(adcHandle->Instance==ADC1)
 145              		.loc 1 88 3 is_stmt 1 view .LVU40
 146              		.loc 1 88 15 is_stmt 0 view .LVU41
 147 0010 2268     		ldr	r2, [r4]
 148              		.loc 1 88 5 view .LVU42
 149 0012 104B     		ldr	r3, .L9
 150 0014 9A42     		cmp	r2, r3
 151 0016 01D0     		beq	.L8
 152              	.L6:
  89:Src/adc.c     ****   {
  90:Src/adc.c     ****   /* USER CODE BEGIN ADC1_MspInit 0 */
  91:Src/adc.c     **** 
  92:Src/adc.c     ****   /* USER CODE END ADC1_MspInit 0 */
  93:Src/adc.c     ****     /* ADC1 clock enable */
  94:Src/adc.c     ****     __HAL_RCC_ADC1_CLK_ENABLE();
  95:Src/adc.c     **** 
  96:Src/adc.c     ****     __HAL_RCC_GPIOA_CLK_ENABLE();
  97:Src/adc.c     ****     /**ADC GPIO Configuration
  98:Src/adc.c     ****     PA0     ------> ADC_IN0
  99:Src/adc.c     ****     PA1     ------> ADC_IN1
 100:Src/adc.c     ****     */
 101:Src/adc.c     ****     GPIO_InitStruct.Pin = GPIO_PIN_0|GPIO_PIN_1;
 102:Src/adc.c     ****     GPIO_InitStruct.Mode = GPIO_MODE_ANALOG;
 103:Src/adc.c     ****     GPIO_InitStruct.Pull = GPIO_NOPULL;
 104:Src/adc.c     ****     HAL_GPIO_Init(GPIOA, &GPIO_InitStruct);
 105:Src/adc.c     **** 
 106:Src/adc.c     ****   /* USER CODE BEGIN ADC1_MspInit 1 */
 107:Src/adc.c     **** 
 108:Src/adc.c     ****   /* USER CODE END ADC1_MspInit 1 */
 109:Src/adc.c     ****   }
 110:Src/adc.c     **** }
 153              		.loc 1 110 1 view .LVU43
 154 0018 08B0     		add	sp, sp, #32
 155              		@ sp needed
 156              	.LVL5:
 157              		.loc 1 110 1 view .LVU44
 158 001a 10BD     		pop	{r4, pc}
 159              	.LVL6:
 160              	.L8:
  94:Src/adc.c     **** 
 161              		.loc 1 94 5 is_stmt 1 view .LVU45
 162              	.LBB2:
  94:Src/adc.c     **** 
 163              		.loc 1 94 5 view .LVU46
  94:Src/adc.c     **** 
 164              		.loc 1 94 5 view .LVU47
 165 001c 0E4B     		ldr	r3, .L9+4
 166 001e 9A69     		ldr	r2, [r3, #24]
 167 0020 8021     		movs	r1, #128
 168 0022 8900     		lsls	r1, r1, #2
 169 0024 0A43     		orrs	r2, r1
 170 0026 9A61     		str	r2, [r3, #24]
  94:Src/adc.c     **** 
 171              		.loc 1 94 5 view .LVU48
 172 0028 9A69     		ldr	r2, [r3, #24]
 173 002a 0A40     		ands	r2, r1
ARM GAS  /var/folders/4h/7vm9s8w13t95ghm4btcrtdl80000gn/T//ccWDnQ7t.s 			page 6


 174 002c 0192     		str	r2, [sp, #4]
  94:Src/adc.c     **** 
 175              		.loc 1 94 5 view .LVU49
 176 002e 019A     		ldr	r2, [sp, #4]
 177              	.LBE2:
  94:Src/adc.c     **** 
 178              		.loc 1 94 5 view .LVU50
  96:Src/adc.c     ****     /**ADC GPIO Configuration
 179              		.loc 1 96 5 view .LVU51
 180              	.LBB3:
  96:Src/adc.c     ****     /**ADC GPIO Configuration
 181              		.loc 1 96 5 view .LVU52
  96:Src/adc.c     ****     /**ADC GPIO Configuration
 182              		.loc 1 96 5 view .LVU53
 183 0030 5A69     		ldr	r2, [r3, #20]
 184 0032 8021     		movs	r1, #128
 185 0034 8902     		lsls	r1, r1, #10
 186 0036 0A43     		orrs	r2, r1
 187 0038 5A61     		str	r2, [r3, #20]
  96:Src/adc.c     ****     /**ADC GPIO Configuration
 188              		.loc 1 96 5 view .LVU54
 189 003a 5B69     		ldr	r3, [r3, #20]
 190 003c 0B40     		ands	r3, r1
 191 003e 0293     		str	r3, [sp, #8]
  96:Src/adc.c     ****     /**ADC GPIO Configuration
 192              		.loc 1 96 5 view .LVU55
 193 0040 029B     		ldr	r3, [sp, #8]
 194              	.LBE3:
  96:Src/adc.c     ****     /**ADC GPIO Configuration
 195              		.loc 1 96 5 view .LVU56
 101:Src/adc.c     ****     GPIO_InitStruct.Mode = GPIO_MODE_ANALOG;
 196              		.loc 1 101 5 view .LVU57
 101:Src/adc.c     ****     GPIO_InitStruct.Mode = GPIO_MODE_ANALOG;
 197              		.loc 1 101 25 is_stmt 0 view .LVU58
 198 0042 0323     		movs	r3, #3
 199 0044 0393     		str	r3, [sp, #12]
 102:Src/adc.c     ****     GPIO_InitStruct.Pull = GPIO_NOPULL;
 200              		.loc 1 102 5 is_stmt 1 view .LVU59
 102:Src/adc.c     ****     GPIO_InitStruct.Pull = GPIO_NOPULL;
 201              		.loc 1 102 26 is_stmt 0 view .LVU60
 202 0046 0493     		str	r3, [sp, #16]
 103:Src/adc.c     ****     HAL_GPIO_Init(GPIOA, &GPIO_InitStruct);
 203              		.loc 1 103 5 is_stmt 1 view .LVU61
 104:Src/adc.c     **** 
 204              		.loc 1 104 5 view .LVU62
 205 0048 9020     		movs	r0, #144
 206 004a 03A9     		add	r1, sp, #12
 207 004c C005     		lsls	r0, r0, #23
 208 004e FFF7FEFF 		bl	HAL_GPIO_Init
 209              	.LVL7:
 210              		.loc 1 110 1 is_stmt 0 view .LVU63
 211 0052 E1E7     		b	.L6
 212              	.L10:
 213              		.align	2
 214              	.L9:
 215 0054 00240140 		.word	1073816576
 216 0058 00100240 		.word	1073876992
ARM GAS  /var/folders/4h/7vm9s8w13t95ghm4btcrtdl80000gn/T//ccWDnQ7t.s 			page 7


 217              		.cfi_endproc
 218              	.LFE44:
 220              		.section	.text.HAL_ADC_MspDeInit,"ax",%progbits
 221              		.align	1
 222              		.global	HAL_ADC_MspDeInit
 223              		.syntax unified
 224              		.code	16
 225              		.thumb_func
 227              	HAL_ADC_MspDeInit:
 228              	.LVL8:
 229              	.LFB45:
 111:Src/adc.c     **** 
 112:Src/adc.c     **** void HAL_ADC_MspDeInit(ADC_HandleTypeDef* adcHandle)
 113:Src/adc.c     **** {
 230              		.loc 1 113 1 is_stmt 1 view -0
 231              		.cfi_startproc
 232              		@ args = 0, pretend = 0, frame = 0
 233              		@ frame_needed = 0, uses_anonymous_args = 0
 234              		.loc 1 113 1 is_stmt 0 view .LVU65
 235 0000 10B5     		push	{r4, lr}
 236              	.LCFI3:
 237              		.cfi_def_cfa_offset 8
 238              		.cfi_offset 4, -8
 239              		.cfi_offset 14, -4
 114:Src/adc.c     **** 
 115:Src/adc.c     ****   if(adcHandle->Instance==ADC1)
 240              		.loc 1 115 3 is_stmt 1 view .LVU66
 241              		.loc 1 115 15 is_stmt 0 view .LVU67
 242 0002 0268     		ldr	r2, [r0]
 243              		.loc 1 115 5 view .LVU68
 244 0004 074B     		ldr	r3, .L14
 245 0006 9A42     		cmp	r2, r3
 246 0008 00D0     		beq	.L13
 247              	.LVL9:
 248              	.L11:
 116:Src/adc.c     ****   {
 117:Src/adc.c     ****   /* USER CODE BEGIN ADC1_MspDeInit 0 */
 118:Src/adc.c     **** 
 119:Src/adc.c     ****   /* USER CODE END ADC1_MspDeInit 0 */
 120:Src/adc.c     ****     /* Peripheral clock disable */
 121:Src/adc.c     ****     __HAL_RCC_ADC1_CLK_DISABLE();
 122:Src/adc.c     **** 
 123:Src/adc.c     ****     /**ADC GPIO Configuration
 124:Src/adc.c     ****     PA0     ------> ADC_IN0
 125:Src/adc.c     ****     PA1     ------> ADC_IN1
 126:Src/adc.c     ****     */
 127:Src/adc.c     ****     HAL_GPIO_DeInit(GPIOA, GPIO_PIN_0|GPIO_PIN_1);
 128:Src/adc.c     **** 
 129:Src/adc.c     ****   /* USER CODE BEGIN ADC1_MspDeInit 1 */
 130:Src/adc.c     **** 
 131:Src/adc.c     ****   /* USER CODE END ADC1_MspDeInit 1 */
 132:Src/adc.c     ****   }
 133:Src/adc.c     **** }
 249              		.loc 1 133 1 view .LVU69
 250              		@ sp needed
 251 000a 10BD     		pop	{r4, pc}
 252              	.LVL10:
ARM GAS  /var/folders/4h/7vm9s8w13t95ghm4btcrtdl80000gn/T//ccWDnQ7t.s 			page 8


 253              	.L13:
 121:Src/adc.c     **** 
 254              		.loc 1 121 5 is_stmt 1 view .LVU70
 255 000c 064A     		ldr	r2, .L14+4
 256 000e 9369     		ldr	r3, [r2, #24]
 257 0010 0649     		ldr	r1, .L14+8
 258 0012 0B40     		ands	r3, r1
 259 0014 9361     		str	r3, [r2, #24]
 127:Src/adc.c     **** 
 260              		.loc 1 127 5 view .LVU71
 261 0016 9020     		movs	r0, #144
 262              	.LVL11:
 127:Src/adc.c     **** 
 263              		.loc 1 127 5 is_stmt 0 view .LVU72
 264 0018 0321     		movs	r1, #3
 265 001a C005     		lsls	r0, r0, #23
 266 001c FFF7FEFF 		bl	HAL_GPIO_DeInit
 267              	.LVL12:
 268              		.loc 1 133 1 view .LVU73
 269 0020 F3E7     		b	.L11
 270              	.L15:
 271 0022 C046     		.align	2
 272              	.L14:
 273 0024 00240140 		.word	1073816576
 274 0028 00100240 		.word	1073876992
 275 002c FFFDFFFF 		.word	-513
 276              		.cfi_endproc
 277              	.LFE45:
 279              		.section	.text.read_adc_channel,"ax",%progbits
 280              		.align	1
 281              		.global	read_adc_channel
 282              		.syntax unified
 283              		.code	16
 284              		.thumb_func
 286              	read_adc_channel:
 287              	.LVL13:
 288              	.LFB46:
 134:Src/adc.c     **** 
 135:Src/adc.c     **** /* USER CODE BEGIN 1 */
 136:Src/adc.c     **** 
 137:Src/adc.c     **** uint16_t read_adc_channel(uint8_t channel) {
 289              		.loc 1 137 44 is_stmt 1 view -0
 290              		.cfi_startproc
 291              		@ args = 0, pretend = 0, frame = 16
 292              		@ frame_needed = 0, uses_anonymous_args = 0
 293              		.loc 1 137 44 is_stmt 0 view .LVU75
 294 0000 30B5     		push	{r4, r5, lr}
 295              	.LCFI4:
 296              		.cfi_def_cfa_offset 12
 297              		.cfi_offset 4, -12
 298              		.cfi_offset 5, -8
 299              		.cfi_offset 14, -4
 300 0002 85B0     		sub	sp, sp, #20
 301              	.LCFI5:
 302              		.cfi_def_cfa_offset 32
 303 0004 0400     		movs	r4, r0
 138:Src/adc.c     **** 	ADC_ChannelConfTypeDef sConfigPrivate = {0};
ARM GAS  /var/folders/4h/7vm9s8w13t95ghm4btcrtdl80000gn/T//ccWDnQ7t.s 			page 9


 304              		.loc 1 138 2 is_stmt 1 view .LVU76
 305              		.loc 1 138 25 is_stmt 0 view .LVU77
 306 0006 0C22     		movs	r2, #12
 307 0008 0021     		movs	r1, #0
 308 000a 01A8     		add	r0, sp, #4
 309              	.LVL14:
 310              		.loc 1 138 25 view .LVU78
 311 000c FFF7FEFF 		bl	memset
 312              	.LVL15:
 139:Src/adc.c     **** 	sConfigPrivate.Rank = ADC_RANK_CHANNEL_NUMBER;
 313              		.loc 1 139 2 is_stmt 1 view .LVU79
 314              		.loc 1 139 22 is_stmt 0 view .LVU80
 315 0010 8023     		movs	r3, #128
 316 0012 5B01     		lsls	r3, r3, #5
 317 0014 0293     		str	r3, [sp, #8]
 140:Src/adc.c     **** 	sConfigPrivate.SamplingTime = ADC_SAMPLETIME_1CYCLE_5;
 318              		.loc 1 140 2 is_stmt 1 view .LVU81
 319              		.loc 1 140 30 is_stmt 0 view .LVU82
 320 0016 8023     		movs	r3, #128
 321 0018 5B05     		lsls	r3, r3, #21
 322 001a 0393     		str	r3, [sp, #12]
 141:Src/adc.c     **** 	if (channel == (uint8_t) 0) { sConfigPrivate.Channel = ADC_CHANNEL_0; }
 323              		.loc 1 141 2 is_stmt 1 view .LVU83
 324              		.loc 1 141 5 is_stmt 0 view .LVU84
 325 001c 002C     		cmp	r4, #0
 326 001e 01D0     		beq	.L17
 142:Src/adc.c     **** 	if (channel == (uint8_t) 1) { sConfigPrivate.Channel = ADC_CHANNEL_1; }
 327              		.loc 1 142 2 is_stmt 1 view .LVU85
 328              		.loc 1 142 5 is_stmt 0 view .LVU86
 329 0020 012C     		cmp	r4, #1
 330 0022 16D0     		beq	.L18
 331              	.L17:
 143:Src/adc.c     **** 
 144:Src/adc.c     **** 	HAL_ADC_ConfigChannel(&hadc, &sConfigPrivate);
 332              		.loc 1 144 2 is_stmt 1 view .LVU87
 333 0024 0C4C     		ldr	r4, .L19
 334              	.LVL16:
 335              		.loc 1 144 2 is_stmt 0 view .LVU88
 336 0026 01A9     		add	r1, sp, #4
 337 0028 2000     		movs	r0, r4
 338 002a FFF7FEFF 		bl	HAL_ADC_ConfigChannel
 339              	.LVL17:
 145:Src/adc.c     **** 	HAL_ADC_Start(&hadc);
 340              		.loc 1 145 2 is_stmt 1 view .LVU89
 341 002e 2000     		movs	r0, r4
 342 0030 FFF7FEFF 		bl	HAL_ADC_Start
 343              	.LVL18:
 146:Src/adc.c     **** 	HAL_ADC_PollForConversion(&hadc, 1000);
 344              		.loc 1 146 2 view .LVU90
 345 0034 FA21     		movs	r1, #250
 346 0036 8900     		lsls	r1, r1, #2
 347 0038 2000     		movs	r0, r4
 348 003a FFF7FEFF 		bl	HAL_ADC_PollForConversion
 349              	.LVL19:
 147:Src/adc.c     **** 
 148:Src/adc.c     **** 	uint16_t tmp_value = HAL_ADC_GetValue(&hadc);
 350              		.loc 1 148 2 view .LVU91
ARM GAS  /var/folders/4h/7vm9s8w13t95ghm4btcrtdl80000gn/T//ccWDnQ7t.s 			page 10


 351              		.loc 1 148 23 is_stmt 0 view .LVU92
 352 003e 2000     		movs	r0, r4
 353 0040 FFF7FEFF 		bl	HAL_ADC_GetValue
 354              	.LVL20:
 355              		.loc 1 148 11 discriminator 1 view .LVU93
 356 0044 85B2     		uxth	r5, r0
 357              	.LVL21:
 149:Src/adc.c     **** 	HAL_ADC_Stop(&hadc);
 358              		.loc 1 149 2 is_stmt 1 view .LVU94
 359 0046 2000     		movs	r0, r4
 360 0048 FFF7FEFF 		bl	HAL_ADC_Stop
 361              	.LVL22:
 150:Src/adc.c     **** 	return tmp_value;
 362              		.loc 1 150 2 view .LVU95
 151:Src/adc.c     **** }
 363              		.loc 1 151 1 is_stmt 0 view .LVU96
 364 004c 2800     		movs	r0, r5
 365 004e 05B0     		add	sp, sp, #20
 366              		@ sp needed
 367              	.LVL23:
 368              		.loc 1 151 1 view .LVU97
 369 0050 30BD     		pop	{r4, r5, pc}
 370              	.LVL24:
 371              	.L18:
 142:Src/adc.c     **** 
 372              		.loc 1 142 32 is_stmt 1 discriminator 1 view .LVU98
 142:Src/adc.c     **** 
 373              		.loc 1 142 55 is_stmt 0 discriminator 1 view .LVU99
 374 0052 0123     		movs	r3, #1
 375 0054 0193     		str	r3, [sp, #4]
 376 0056 E5E7     		b	.L17
 377              	.L20:
 378              		.align	2
 379              	.L19:
 380 0058 00000000 		.word	hadc
 381              		.cfi_endproc
 382              	.LFE46:
 384              		.section	.text.read_adc_channel_0,"ax",%progbits
 385              		.align	1
 386              		.global	read_adc_channel_0
 387              		.syntax unified
 388              		.code	16
 389              		.thumb_func
 391              	read_adc_channel_0:
 392              	.LFB47:
 152:Src/adc.c     **** 
 153:Src/adc.c     **** uint16_t read_adc_channel_0(void) {
 393              		.loc 1 153 35 is_stmt 1 view -0
 394              		.cfi_startproc
 395              		@ args = 0, pretend = 0, frame = 16
 396              		@ frame_needed = 0, uses_anonymous_args = 0
 397 0000 30B5     		push	{r4, r5, lr}
 398              	.LCFI6:
 399              		.cfi_def_cfa_offset 12
 400              		.cfi_offset 4, -12
 401              		.cfi_offset 5, -8
 402              		.cfi_offset 14, -4
ARM GAS  /var/folders/4h/7vm9s8w13t95ghm4btcrtdl80000gn/T//ccWDnQ7t.s 			page 11


 403 0002 85B0     		sub	sp, sp, #20
 404              	.LCFI7:
 405              		.cfi_def_cfa_offset 32
 154:Src/adc.c     **** 	ADC_ChannelConfTypeDef sConfig = {0};
 406              		.loc 1 154 2 view .LVU101
 407              		.loc 1 154 25 is_stmt 0 view .LVU102
 408 0004 0C22     		movs	r2, #12
 409 0006 0021     		movs	r1, #0
 410 0008 01A8     		add	r0, sp, #4
 411 000a FFF7FEFF 		bl	memset
 412              	.LVL25:
 155:Src/adc.c     **** 	sConfig.Channel = ADC_CHANNEL_0;
 413              		.loc 1 155 2 is_stmt 1 view .LVU103
 156:Src/adc.c     **** 	sConfig.Rank = ADC_RANK_CHANNEL_NUMBER;
 414              		.loc 1 156 2 view .LVU104
 415              		.loc 1 156 15 is_stmt 0 view .LVU105
 416 000e 8023     		movs	r3, #128
 417 0010 5B01     		lsls	r3, r3, #5
 418 0012 0293     		str	r3, [sp, #8]
 157:Src/adc.c     **** 	sConfig.SamplingTime = ADC_SAMPLETIME_1CYCLE_5;
 419              		.loc 1 157 2 is_stmt 1 view .LVU106
 420              		.loc 1 157 23 is_stmt 0 view .LVU107
 421 0014 8023     		movs	r3, #128
 422 0016 5B05     		lsls	r3, r3, #21
 423 0018 0393     		str	r3, [sp, #12]
 158:Src/adc.c     **** 	if (HAL_ADC_ConfigChannel(&hadc, &sConfig) != HAL_OK) Error_Handler();
 424              		.loc 1 158 2 is_stmt 1 view .LVU108
 425              		.loc 1 158 6 is_stmt 0 view .LVU109
 426 001a 0E48     		ldr	r0, .L24
 427 001c 01A9     		add	r1, sp, #4
 428 001e FFF7FEFF 		bl	HAL_ADC_ConfigChannel
 429              	.LVL26:
 430              		.loc 1 158 5 discriminator 1 view .LVU110
 431 0022 0028     		cmp	r0, #0
 432 0024 12D1     		bne	.L23
 433              	.L22:
 159:Src/adc.c     **** 
 160:Src/adc.c     **** 	HAL_ADC_Start(&hadc);
 434              		.loc 1 160 2 is_stmt 1 view .LVU111
 435 0026 0B4C     		ldr	r4, .L24
 436 0028 2000     		movs	r0, r4
 437 002a FFF7FEFF 		bl	HAL_ADC_Start
 438              	.LVL27:
 161:Src/adc.c     **** 	HAL_ADC_PollForConversion(&hadc, 1000);
 439              		.loc 1 161 2 view .LVU112
 440 002e FA21     		movs	r1, #250
 441 0030 8900     		lsls	r1, r1, #2
 442 0032 2000     		movs	r0, r4
 443 0034 FFF7FEFF 		bl	HAL_ADC_PollForConversion
 444              	.LVL28:
 162:Src/adc.c     **** 	uint16_t tmp_value = HAL_ADC_GetValue(&hadc);
 445              		.loc 1 162 2 view .LVU113
 446              		.loc 1 162 23 is_stmt 0 view .LVU114
 447 0038 2000     		movs	r0, r4
 448 003a FFF7FEFF 		bl	HAL_ADC_GetValue
 449              	.LVL29:
 450              		.loc 1 162 11 discriminator 1 view .LVU115
ARM GAS  /var/folders/4h/7vm9s8w13t95ghm4btcrtdl80000gn/T//ccWDnQ7t.s 			page 12


 451 003e 85B2     		uxth	r5, r0
 452              	.LVL30:
 163:Src/adc.c     **** 	HAL_ADC_Stop(&hadc);
 453              		.loc 1 163 2 is_stmt 1 view .LVU116
 454 0040 2000     		movs	r0, r4
 455 0042 FFF7FEFF 		bl	HAL_ADC_Stop
 456              	.LVL31:
 164:Src/adc.c     **** 	return tmp_value;
 457              		.loc 1 164 2 view .LVU117
 165:Src/adc.c     **** }
 458              		.loc 1 165 1 is_stmt 0 view .LVU118
 459 0046 2800     		movs	r0, r5
 460 0048 05B0     		add	sp, sp, #20
 461              		@ sp needed
 462              	.LVL32:
 463              		.loc 1 165 1 view .LVU119
 464 004a 30BD     		pop	{r4, r5, pc}
 465              	.LVL33:
 466              	.L23:
 158:Src/adc.c     **** 
 467              		.loc 1 158 56 is_stmt 1 discriminator 1 view .LVU120
 468 004c FFF7FEFF 		bl	Error_Handler
 469              	.LVL34:
 470 0050 E9E7     		b	.L22
 471              	.L25:
 472 0052 C046     		.align	2
 473              	.L24:
 474 0054 00000000 		.word	hadc
 475              		.cfi_endproc
 476              	.LFE47:
 478              		.section	.text.read_adc_channel_1,"ax",%progbits
 479              		.align	1
 480              		.global	read_adc_channel_1
 481              		.syntax unified
 482              		.code	16
 483              		.thumb_func
 485              	read_adc_channel_1:
 486              	.LFB48:
 166:Src/adc.c     **** 
 167:Src/adc.c     **** uint16_t read_adc_channel_1(void) {
 487              		.loc 1 167 35 view -0
 488              		.cfi_startproc
 489              		@ args = 0, pretend = 0, frame = 16
 490              		@ frame_needed = 0, uses_anonymous_args = 0
 491 0000 30B5     		push	{r4, r5, lr}
 492              	.LCFI8:
 493              		.cfi_def_cfa_offset 12
 494              		.cfi_offset 4, -12
 495              		.cfi_offset 5, -8
 496              		.cfi_offset 14, -4
 497 0002 85B0     		sub	sp, sp, #20
 498              	.LCFI9:
 499              		.cfi_def_cfa_offset 32
 168:Src/adc.c     **** 	ADC_ChannelConfTypeDef sConfig = {0};
 500              		.loc 1 168 2 view .LVU122
 501              		.loc 1 168 25 is_stmt 0 view .LVU123
 502 0004 0C22     		movs	r2, #12
ARM GAS  /var/folders/4h/7vm9s8w13t95ghm4btcrtdl80000gn/T//ccWDnQ7t.s 			page 13


 503 0006 0021     		movs	r1, #0
 504 0008 01A8     		add	r0, sp, #4
 505 000a FFF7FEFF 		bl	memset
 506              	.LVL35:
 169:Src/adc.c     **** 	sConfig.Channel = ADC_CHANNEL_1;
 507              		.loc 1 169 2 is_stmt 1 view .LVU124
 508              		.loc 1 169 18 is_stmt 0 view .LVU125
 509 000e 0123     		movs	r3, #1
 510 0010 0193     		str	r3, [sp, #4]
 170:Src/adc.c     **** 	sConfig.Rank = ADC_RANK_CHANNEL_NUMBER;
 511              		.loc 1 170 2 is_stmt 1 view .LVU126
 512              		.loc 1 170 15 is_stmt 0 view .LVU127
 513 0012 8023     		movs	r3, #128
 514 0014 5B01     		lsls	r3, r3, #5
 515 0016 0293     		str	r3, [sp, #8]
 171:Src/adc.c     **** 	sConfig.SamplingTime = ADC_SAMPLETIME_1CYCLE_5;
 516              		.loc 1 171 2 is_stmt 1 view .LVU128
 517              		.loc 1 171 23 is_stmt 0 view .LVU129
 518 0018 8023     		movs	r3, #128
 519 001a 5B05     		lsls	r3, r3, #21
 520 001c 0393     		str	r3, [sp, #12]
 172:Src/adc.c     **** 	if (HAL_ADC_ConfigChannel(&hadc, &sConfig) != HAL_OK) Error_Handler();
 521              		.loc 1 172 2 is_stmt 1 view .LVU130
 522              		.loc 1 172 6 is_stmt 0 view .LVU131
 523 001e 0E48     		ldr	r0, .L29
 524 0020 01A9     		add	r1, sp, #4
 525 0022 FFF7FEFF 		bl	HAL_ADC_ConfigChannel
 526              	.LVL36:
 527              		.loc 1 172 5 discriminator 1 view .LVU132
 528 0026 0028     		cmp	r0, #0
 529 0028 12D1     		bne	.L28
 530              	.L27:
 173:Src/adc.c     **** 
 174:Src/adc.c     **** 	HAL_ADC_Start(&hadc);
 531              		.loc 1 174 2 is_stmt 1 view .LVU133
 532 002a 0B4C     		ldr	r4, .L29
 533 002c 2000     		movs	r0, r4
 534 002e FFF7FEFF 		bl	HAL_ADC_Start
 535              	.LVL37:
 175:Src/adc.c     **** 	HAL_ADC_PollForConversion(&hadc, 1000);
 536              		.loc 1 175 2 view .LVU134
 537 0032 FA21     		movs	r1, #250
 538 0034 8900     		lsls	r1, r1, #2
 539 0036 2000     		movs	r0, r4
 540 0038 FFF7FEFF 		bl	HAL_ADC_PollForConversion
 541              	.LVL38:
 176:Src/adc.c     **** 	uint16_t tmp_value = HAL_ADC_GetValue(&hadc);
 542              		.loc 1 176 2 view .LVU135
 543              		.loc 1 176 23 is_stmt 0 view .LVU136
 544 003c 2000     		movs	r0, r4
 545 003e FFF7FEFF 		bl	HAL_ADC_GetValue
 546              	.LVL39:
 547              		.loc 1 176 11 discriminator 1 view .LVU137
 548 0042 85B2     		uxth	r5, r0
 549              	.LVL40:
 177:Src/adc.c     **** 	HAL_ADC_Stop(&hadc);
 550              		.loc 1 177 2 is_stmt 1 view .LVU138
ARM GAS  /var/folders/4h/7vm9s8w13t95ghm4btcrtdl80000gn/T//ccWDnQ7t.s 			page 14


 551 0044 2000     		movs	r0, r4
 552 0046 FFF7FEFF 		bl	HAL_ADC_Stop
 553              	.LVL41:
 178:Src/adc.c     **** 	return tmp_value;
 554              		.loc 1 178 2 view .LVU139
 179:Src/adc.c     **** }
 555              		.loc 1 179 1 is_stmt 0 view .LVU140
 556 004a 2800     		movs	r0, r5
 557 004c 05B0     		add	sp, sp, #20
 558              		@ sp needed
 559              	.LVL42:
 560              		.loc 1 179 1 view .LVU141
 561 004e 30BD     		pop	{r4, r5, pc}
 562              	.LVL43:
 563              	.L28:
 172:Src/adc.c     **** 
 564              		.loc 1 172 56 is_stmt 1 discriminator 1 view .LVU142
 565 0050 FFF7FEFF 		bl	Error_Handler
 566              	.LVL44:
 567 0054 E9E7     		b	.L27
 568              	.L30:
 569 0056 C046     		.align	2
 570              	.L29:
 571 0058 00000000 		.word	hadc
 572              		.cfi_endproc
 573              	.LFE48:
 575              		.global	hadc
 576              		.section	.bss.hadc,"aw",%nobits
 577              		.align	2
 580              	hadc:
 581 0000 00000000 		.space	88
 581      00000000 
 581      00000000 
 581      00000000 
 581      00000000 
 582              		.text
 583              	.Letext0:
 584              		.file 2 "/Applications/ArmGNUToolchain/13.2.Rel1/arm-none-eabi/arm-none-eabi/include/machine/_defa
 585              		.file 3 "/Applications/ArmGNUToolchain/13.2.Rel1/arm-none-eabi/arm-none-eabi/include/sys/_stdint.h
 586              		.file 4 "Drivers/CMSIS/Device/ST/STM32F0xx/Include/stm32f051x8.h"
 587              		.file 5 "Drivers/CMSIS/Device/ST/STM32F0xx/Include/stm32f0xx.h"
 588              		.file 6 "Drivers/STM32F0xx_HAL_Driver/Inc/stm32f0xx_hal_def.h"
 589              		.file 7 "Drivers/STM32F0xx_HAL_Driver/Inc/stm32f0xx_hal_gpio.h"
 590              		.file 8 "Drivers/STM32F0xx_HAL_Driver/Inc/stm32f0xx_hal_dma.h"
 591              		.file 9 "Drivers/STM32F0xx_HAL_Driver/Inc/stm32f0xx_hal_adc.h"
 592              		.file 10 "Inc/adc.h"
 593              		.file 11 "Inc/main.h"
 594              		.file 12 "<built-in>"
ARM GAS  /var/folders/4h/7vm9s8w13t95ghm4btcrtdl80000gn/T//ccWDnQ7t.s 			page 15


DEFINED SYMBOLS
                            *ABS*:00000000 adc.c
/var/folders/4h/7vm9s8w13t95ghm4btcrtdl80000gn/T//ccWDnQ7t.s:19     .text.MX_ADC_Init:00000000 $t
/var/folders/4h/7vm9s8w13t95ghm4btcrtdl80000gn/T//ccWDnQ7t.s:25     .text.MX_ADC_Init:00000000 MX_ADC_Init
/var/folders/4h/7vm9s8w13t95ghm4btcrtdl80000gn/T//ccWDnQ7t.s:107    .text.MX_ADC_Init:00000040 $d
/var/folders/4h/7vm9s8w13t95ghm4btcrtdl80000gn/T//ccWDnQ7t.s:580    .bss.hadc:00000000 hadc
/var/folders/4h/7vm9s8w13t95ghm4btcrtdl80000gn/T//ccWDnQ7t.s:113    .text.HAL_ADC_MspInit:00000000 $t
/var/folders/4h/7vm9s8w13t95ghm4btcrtdl80000gn/T//ccWDnQ7t.s:119    .text.HAL_ADC_MspInit:00000000 HAL_ADC_MspInit
/var/folders/4h/7vm9s8w13t95ghm4btcrtdl80000gn/T//ccWDnQ7t.s:215    .text.HAL_ADC_MspInit:00000054 $d
/var/folders/4h/7vm9s8w13t95ghm4btcrtdl80000gn/T//ccWDnQ7t.s:221    .text.HAL_ADC_MspDeInit:00000000 $t
/var/folders/4h/7vm9s8w13t95ghm4btcrtdl80000gn/T//ccWDnQ7t.s:227    .text.HAL_ADC_MspDeInit:00000000 HAL_ADC_MspDeInit
/var/folders/4h/7vm9s8w13t95ghm4btcrtdl80000gn/T//ccWDnQ7t.s:273    .text.HAL_ADC_MspDeInit:00000024 $d
/var/folders/4h/7vm9s8w13t95ghm4btcrtdl80000gn/T//ccWDnQ7t.s:280    .text.read_adc_channel:00000000 $t
/var/folders/4h/7vm9s8w13t95ghm4btcrtdl80000gn/T//ccWDnQ7t.s:286    .text.read_adc_channel:00000000 read_adc_channel
/var/folders/4h/7vm9s8w13t95ghm4btcrtdl80000gn/T//ccWDnQ7t.s:380    .text.read_adc_channel:00000058 $d
/var/folders/4h/7vm9s8w13t95ghm4btcrtdl80000gn/T//ccWDnQ7t.s:385    .text.read_adc_channel_0:00000000 $t
/var/folders/4h/7vm9s8w13t95ghm4btcrtdl80000gn/T//ccWDnQ7t.s:391    .text.read_adc_channel_0:00000000 read_adc_channel_0
/var/folders/4h/7vm9s8w13t95ghm4btcrtdl80000gn/T//ccWDnQ7t.s:474    .text.read_adc_channel_0:00000054 $d
/var/folders/4h/7vm9s8w13t95ghm4btcrtdl80000gn/T//ccWDnQ7t.s:479    .text.read_adc_channel_1:00000000 $t
/var/folders/4h/7vm9s8w13t95ghm4btcrtdl80000gn/T//ccWDnQ7t.s:485    .text.read_adc_channel_1:00000000 read_adc_channel_1
/var/folders/4h/7vm9s8w13t95ghm4btcrtdl80000gn/T//ccWDnQ7t.s:571    .text.read_adc_channel_1:00000058 $d
/var/folders/4h/7vm9s8w13t95ghm4btcrtdl80000gn/T//ccWDnQ7t.s:577    .bss.hadc:00000000 $d

UNDEFINED SYMBOLS
HAL_ADC_Init
Error_Handler
memset
HAL_GPIO_Init
HAL_GPIO_DeInit
HAL_ADC_ConfigChannel
HAL_ADC_Start
HAL_ADC_PollForConversion
HAL_ADC_GetValue
HAL_ADC_Stop
