ARM GAS  /var/folders/4h/7vm9s8w13t95ghm4btcrtdl80000gn/T//cc6XmIpy.s 			page 1


   1              		.cpu cortex-m0
   2              		.arch armv6s-m
   3              		.fpu softvfp
   4              		.eabi_attribute 20, 1
   5              		.eabi_attribute 21, 1
   6              		.eabi_attribute 23, 3
   7              		.eabi_attribute 24, 1
   8              		.eabi_attribute 25, 1
   9              		.eabi_attribute 26, 1
  10              		.eabi_attribute 30, 1
  11              		.eabi_attribute 34, 0
  12              		.eabi_attribute 18, 4
  13              		.file	"adc.c"
  14              		.text
  15              	.Ltext0:
  16              		.cfi_sections	.debug_frame
  17              		.file 1 "Src/adc.c"
  18              		.section	.text.MX_ADC_Init,"ax",%progbits
  19              		.align	1
  20              		.global	MX_ADC_Init
  21              		.syntax unified
  22              		.code	16
  23              		.thumb_func
  25              	MX_ADC_Init:
  26              	.LFB43:
   1:Src/adc.c     **** /* USER CODE BEGIN Header */
   2:Src/adc.c     **** /**
   3:Src/adc.c     ****   ******************************************************************************
   4:Src/adc.c     ****   * @file    adc.c
   5:Src/adc.c     ****   * @brief   This file provides code for the configuration
   6:Src/adc.c     ****   *          of the ADC instances.
   7:Src/adc.c     ****   ******************************************************************************
   8:Src/adc.c     ****   * @attention
   9:Src/adc.c     ****   *
  10:Src/adc.c     ****   * Copyright (c) 2024 STMicroelectronics.
  11:Src/adc.c     ****   * All rights reserved.
  12:Src/adc.c     ****   *
  13:Src/adc.c     ****   * This software is licensed under terms that can be found in the LICENSE file
  14:Src/adc.c     ****   * in the root directory of this software component.
  15:Src/adc.c     ****   * If no LICENSE file comes with this software, it is provided AS-IS.
  16:Src/adc.c     ****   *
  17:Src/adc.c     ****   ******************************************************************************
  18:Src/adc.c     ****   */
  19:Src/adc.c     **** /* USER CODE END Header */
  20:Src/adc.c     **** /* Includes ------------------------------------------------------------------*/
  21:Src/adc.c     **** #include "adc.h"
  22:Src/adc.c     **** 
  23:Src/adc.c     **** /* USER CODE BEGIN 0 */
  24:Src/adc.c     **** /* USER CODE END 0 */
  25:Src/adc.c     **** 
  26:Src/adc.c     **** ADC_HandleTypeDef hadc;
  27:Src/adc.c     **** 
  28:Src/adc.c     **** /* ADC init function */
  29:Src/adc.c     **** void MX_ADC_Init(void)
  30:Src/adc.c     **** {
  27              		.loc 1 30 1 view -0
  28              		.cfi_startproc
ARM GAS  /var/folders/4h/7vm9s8w13t95ghm4btcrtdl80000gn/T//cc6XmIpy.s 			page 2


  29              		@ args = 0, pretend = 0, frame = 0
  30              		@ frame_needed = 0, uses_anonymous_args = 0
  31 0000 10B5     		push	{r4, lr}
  32              	.LCFI0:
  33              		.cfi_def_cfa_offset 8
  34              		.cfi_offset 4, -8
  35              		.cfi_offset 14, -4
  31:Src/adc.c     **** 
  32:Src/adc.c     ****   /* USER CODE BEGIN ADC_Init 0 */
  33:Src/adc.c     **** 
  34:Src/adc.c     ****   /* USER CODE END ADC_Init 0 */
  35:Src/adc.c     **** 
  36:Src/adc.c     ****   //ADC_ChannelConfTypeDef sConfig = {0};
  37:Src/adc.c     **** 
  38:Src/adc.c     ****   /* USER CODE BEGIN ADC_Init 1 */
  39:Src/adc.c     **** 
  40:Src/adc.c     ****   /* USER CODE END ADC_Init 1 */
  41:Src/adc.c     **** 
  42:Src/adc.c     ****   /** Configure the global features of the ADC (Clock, Resolution, Data Alignment and number of con
  43:Src/adc.c     ****   */
  44:Src/adc.c     ****   hadc.Instance = ADC1;
  36              		.loc 1 44 3 view .LVU1
  37              		.loc 1 44 17 is_stmt 0 view .LVU2
  38 0002 0F48     		ldr	r0, .L4
  39 0004 0F4B     		ldr	r3, .L4+4
  40 0006 0360     		str	r3, [r0]
  45:Src/adc.c     ****   hadc.Init.ClockPrescaler = ADC_CLOCK_ASYNC_DIV1;
  41              		.loc 1 45 3 is_stmt 1 view .LVU3
  42              		.loc 1 45 28 is_stmt 0 view .LVU4
  43 0008 0023     		movs	r3, #0
  44 000a 4360     		str	r3, [r0, #4]
  46:Src/adc.c     ****   hadc.Init.Resolution = ADC_RESOLUTION_12B;
  45              		.loc 1 46 3 is_stmt 1 view .LVU5
  46              		.loc 1 46 24 is_stmt 0 view .LVU6
  47 000c 8360     		str	r3, [r0, #8]
  47:Src/adc.c     ****   hadc.Init.DataAlign = ADC_DATAALIGN_RIGHT;
  48              		.loc 1 47 3 is_stmt 1 view .LVU7
  49              		.loc 1 47 23 is_stmt 0 view .LVU8
  50 000e C360     		str	r3, [r0, #12]
  48:Src/adc.c     ****   hadc.Init.ScanConvMode = ADC_SCAN_DIRECTION_FORWARD;
  51              		.loc 1 48 3 is_stmt 1 view .LVU9
  52              		.loc 1 48 26 is_stmt 0 view .LVU10
  53 0010 0122     		movs	r2, #1
  54 0012 0261     		str	r2, [r0, #16]
  49:Src/adc.c     ****   hadc.Init.EOCSelection = ADC_EOC_SINGLE_CONV;
  55              		.loc 1 49 3 is_stmt 1 view .LVU11
  56              		.loc 1 49 26 is_stmt 0 view .LVU12
  57 0014 0332     		adds	r2, r2, #3
  58 0016 4261     		str	r2, [r0, #20]
  50:Src/adc.c     ****   hadc.Init.LowPowerAutoWait = DISABLE;
  59              		.loc 1 50 3 is_stmt 1 view .LVU13
  60              		.loc 1 50 30 is_stmt 0 view .LVU14
  61 0018 0376     		strb	r3, [r0, #24]
  51:Src/adc.c     ****   hadc.Init.LowPowerAutoPowerOff = DISABLE;
  62              		.loc 1 51 3 is_stmt 1 view .LVU15
  63              		.loc 1 51 34 is_stmt 0 view .LVU16
  64 001a 4376     		strb	r3, [r0, #25]
ARM GAS  /var/folders/4h/7vm9s8w13t95ghm4btcrtdl80000gn/T//cc6XmIpy.s 			page 3


  52:Src/adc.c     ****   hadc.Init.ContinuousConvMode = DISABLE;
  65              		.loc 1 52 3 is_stmt 1 view .LVU17
  66              		.loc 1 52 32 is_stmt 0 view .LVU18
  67 001c 8376     		strb	r3, [r0, #26]
  53:Src/adc.c     ****   hadc.Init.DiscontinuousConvMode = DISABLE;
  68              		.loc 1 53 3 is_stmt 1 view .LVU19
  69              		.loc 1 53 35 is_stmt 0 view .LVU20
  70 001e C376     		strb	r3, [r0, #27]
  54:Src/adc.c     ****   hadc.Init.ExternalTrigConv = ADC_SOFTWARE_START;
  71              		.loc 1 54 3 is_stmt 1 view .LVU21
  72              		.loc 1 54 30 is_stmt 0 view .LVU22
  73 0020 C222     		movs	r2, #194
  74 0022 FF32     		adds	r2, r2, #255
  75 0024 C261     		str	r2, [r0, #28]
  55:Src/adc.c     ****   hadc.Init.ExternalTrigConvEdge = ADC_EXTERNALTRIGCONVEDGE_NONE;
  76              		.loc 1 55 3 is_stmt 1 view .LVU23
  77              		.loc 1 55 34 is_stmt 0 view .LVU24
  78 0026 0362     		str	r3, [r0, #32]
  56:Src/adc.c     ****   hadc.Init.DMAContinuousRequests = DISABLE;
  79              		.loc 1 56 3 is_stmt 1 view .LVU25
  80              		.loc 1 56 35 is_stmt 0 view .LVU26
  81 0028 9E3A     		subs	r2, r2, #158
  82 002a FF3A     		subs	r2, r2, #255
  83 002c 8354     		strb	r3, [r0, r2]
  57:Src/adc.c     ****   hadc.Init.Overrun = ADC_OVR_DATA_OVERWRITTEN;
  84              		.loc 1 57 3 is_stmt 1 view .LVU27
  85              		.loc 1 57 21 is_stmt 0 view .LVU28
  86 002e 8362     		str	r3, [r0, #40]
  58:Src/adc.c     ****   if (HAL_ADC_Init(&hadc) != HAL_OK)
  87              		.loc 1 58 3 is_stmt 1 view .LVU29
  88              		.loc 1 58 7 is_stmt 0 view .LVU30
  89 0030 FFF7FEFF 		bl	HAL_ADC_Init
  90              	.LVL0:
  91              		.loc 1 58 6 discriminator 1 view .LVU31
  92 0034 0028     		cmp	r0, #0
  93 0036 00D1     		bne	.L3
  94              	.L1:
  59:Src/adc.c     ****   {
  60:Src/adc.c     ****     Error_Handler();
  61:Src/adc.c     ****   }
  62:Src/adc.c     **** 
  63:Src/adc.c     ****   // /** Configure for the selected ADC regular channel to be converted.
  64:Src/adc.c     ****   // */
  65:Src/adc.c     ****   // sConfig.Channel = ADC_CHANNEL_0;
  66:Src/adc.c     ****   // sConfig.Rank = ADC_RANK_CHANNEL_NUMBER;
  67:Src/adc.c     ****   // sConfig.SamplingTime = ADC_SAMPLETIME_1CYCLE_5;
  68:Src/adc.c     ****   // if (HAL_ADC_ConfigChannel(&hadc, &sConfig) != HAL_OK)
  69:Src/adc.c     ****   // {
  70:Src/adc.c     ****   //   Error_Handler();
  71:Src/adc.c     ****   // }
  72:Src/adc.c     ****   //
  73:Src/adc.c     ****   // /** Configure for the selected ADC regular channel to be converted.
  74:Src/adc.c     ****   // */
  75:Src/adc.c     ****   // sConfig.Channel = ADC_CHANNEL_1;
  76:Src/adc.c     ****   // if (HAL_ADC_ConfigChannel(&hadc, &sConfig) != HAL_OK)
  77:Src/adc.c     ****   // {
  78:Src/adc.c     ****   //   Error_Handler();
ARM GAS  /var/folders/4h/7vm9s8w13t95ghm4btcrtdl80000gn/T//cc6XmIpy.s 			page 4


  79:Src/adc.c     ****   // }
  80:Src/adc.c     ****   /* USER CODE BEGIN ADC_Init 2 */
  81:Src/adc.c     ****   
  82:Src/adc.c     ****   /* USER CODE END ADC_Init 2 */
  83:Src/adc.c     **** 
  84:Src/adc.c     **** }
  95              		.loc 1 84 1 view .LVU32
  96              		@ sp needed
  97 0038 10BD     		pop	{r4, pc}
  98              	.L3:
  60:Src/adc.c     ****   }
  99              		.loc 1 60 5 is_stmt 1 view .LVU33
 100 003a FFF7FEFF 		bl	Error_Handler
 101              	.LVL1:
 102              		.loc 1 84 1 is_stmt 0 view .LVU34
 103 003e FBE7     		b	.L1
 104              	.L5:
 105              		.align	2
 106              	.L4:
 107 0040 00000000 		.word	hadc
 108 0044 00240140 		.word	1073816576
 109              		.cfi_endproc
 110              	.LFE43:
 112              		.section	.text.HAL_ADC_MspInit,"ax",%progbits
 113              		.align	1
 114              		.global	HAL_ADC_MspInit
 115              		.syntax unified
 116              		.code	16
 117              		.thumb_func
 119              	HAL_ADC_MspInit:
 120              	.LVL2:
 121              	.LFB44:
  85:Src/adc.c     **** 
  86:Src/adc.c     **** void HAL_ADC_MspInit(ADC_HandleTypeDef* adcHandle)
  87:Src/adc.c     **** {
 122              		.loc 1 87 1 is_stmt 1 view -0
 123              		.cfi_startproc
 124              		@ args = 0, pretend = 0, frame = 32
 125              		@ frame_needed = 0, uses_anonymous_args = 0
 126              		.loc 1 87 1 is_stmt 0 view .LVU36
 127 0000 10B5     		push	{r4, lr}
 128              	.LCFI1:
 129              		.cfi_def_cfa_offset 8
 130              		.cfi_offset 4, -8
 131              		.cfi_offset 14, -4
 132 0002 88B0     		sub	sp, sp, #32
 133              	.LCFI2:
 134              		.cfi_def_cfa_offset 40
 135 0004 0400     		movs	r4, r0
  88:Src/adc.c     **** 
  89:Src/adc.c     ****   GPIO_InitTypeDef GPIO_InitStruct = {0};
 136              		.loc 1 89 3 is_stmt 1 view .LVU37
 137              		.loc 1 89 20 is_stmt 0 view .LVU38
 138 0006 1422     		movs	r2, #20
 139 0008 0021     		movs	r1, #0
 140 000a 03A8     		add	r0, sp, #12
 141              	.LVL3:
ARM GAS  /var/folders/4h/7vm9s8w13t95ghm4btcrtdl80000gn/T//cc6XmIpy.s 			page 5


 142              		.loc 1 89 20 view .LVU39
 143 000c FFF7FEFF 		bl	memset
 144              	.LVL4:
  90:Src/adc.c     ****   if(adcHandle->Instance==ADC1)
 145              		.loc 1 90 3 is_stmt 1 view .LVU40
 146              		.loc 1 90 15 is_stmt 0 view .LVU41
 147 0010 2268     		ldr	r2, [r4]
 148              		.loc 1 90 5 view .LVU42
 149 0012 104B     		ldr	r3, .L9
 150 0014 9A42     		cmp	r2, r3
 151 0016 01D0     		beq	.L8
 152              	.L6:
  91:Src/adc.c     ****   {
  92:Src/adc.c     ****   /* USER CODE BEGIN ADC1_MspInit 0 */
  93:Src/adc.c     **** 
  94:Src/adc.c     ****   /* USER CODE END ADC1_MspInit 0 */
  95:Src/adc.c     ****     /* ADC1 clock enable */
  96:Src/adc.c     ****     __HAL_RCC_ADC1_CLK_ENABLE();
  97:Src/adc.c     **** 
  98:Src/adc.c     ****     __HAL_RCC_GPIOA_CLK_ENABLE();
  99:Src/adc.c     ****     /**ADC GPIO Configuration
 100:Src/adc.c     ****     PA0     ------> ADC_IN0
 101:Src/adc.c     ****     PA1     ------> ADC_IN1
 102:Src/adc.c     ****     */
 103:Src/adc.c     ****     GPIO_InitStruct.Pin = GPIO_PIN_0|GPIO_PIN_1;
 104:Src/adc.c     ****     GPIO_InitStruct.Mode = GPIO_MODE_ANALOG;
 105:Src/adc.c     ****     GPIO_InitStruct.Pull = GPIO_NOPULL;
 106:Src/adc.c     ****     HAL_GPIO_Init(GPIOA, &GPIO_InitStruct);
 107:Src/adc.c     **** 
 108:Src/adc.c     ****   /* USER CODE BEGIN ADC1_MspInit 1 */
 109:Src/adc.c     **** 
 110:Src/adc.c     ****   /* USER CODE END ADC1_MspInit 1 */
 111:Src/adc.c     ****   }
 112:Src/adc.c     **** }
 153              		.loc 1 112 1 view .LVU43
 154 0018 08B0     		add	sp, sp, #32
 155              		@ sp needed
 156              	.LVL5:
 157              		.loc 1 112 1 view .LVU44
 158 001a 10BD     		pop	{r4, pc}
 159              	.LVL6:
 160              	.L8:
  96:Src/adc.c     **** 
 161              		.loc 1 96 5 is_stmt 1 view .LVU45
 162              	.LBB2:
  96:Src/adc.c     **** 
 163              		.loc 1 96 5 view .LVU46
  96:Src/adc.c     **** 
 164              		.loc 1 96 5 view .LVU47
 165 001c 0E4B     		ldr	r3, .L9+4
 166 001e 9A69     		ldr	r2, [r3, #24]
 167 0020 8021     		movs	r1, #128
 168 0022 8900     		lsls	r1, r1, #2
 169 0024 0A43     		orrs	r2, r1
 170 0026 9A61     		str	r2, [r3, #24]
  96:Src/adc.c     **** 
 171              		.loc 1 96 5 view .LVU48
ARM GAS  /var/folders/4h/7vm9s8w13t95ghm4btcrtdl80000gn/T//cc6XmIpy.s 			page 6


 172 0028 9A69     		ldr	r2, [r3, #24]
 173 002a 0A40     		ands	r2, r1
 174 002c 0192     		str	r2, [sp, #4]
  96:Src/adc.c     **** 
 175              		.loc 1 96 5 view .LVU49
 176 002e 019A     		ldr	r2, [sp, #4]
 177              	.LBE2:
  96:Src/adc.c     **** 
 178              		.loc 1 96 5 view .LVU50
  98:Src/adc.c     ****     /**ADC GPIO Configuration
 179              		.loc 1 98 5 view .LVU51
 180              	.LBB3:
  98:Src/adc.c     ****     /**ADC GPIO Configuration
 181              		.loc 1 98 5 view .LVU52
  98:Src/adc.c     ****     /**ADC GPIO Configuration
 182              		.loc 1 98 5 view .LVU53
 183 0030 5A69     		ldr	r2, [r3, #20]
 184 0032 8021     		movs	r1, #128
 185 0034 8902     		lsls	r1, r1, #10
 186 0036 0A43     		orrs	r2, r1
 187 0038 5A61     		str	r2, [r3, #20]
  98:Src/adc.c     ****     /**ADC GPIO Configuration
 188              		.loc 1 98 5 view .LVU54
 189 003a 5B69     		ldr	r3, [r3, #20]
 190 003c 0B40     		ands	r3, r1
 191 003e 0293     		str	r3, [sp, #8]
  98:Src/adc.c     ****     /**ADC GPIO Configuration
 192              		.loc 1 98 5 view .LVU55
 193 0040 029B     		ldr	r3, [sp, #8]
 194              	.LBE3:
  98:Src/adc.c     ****     /**ADC GPIO Configuration
 195              		.loc 1 98 5 view .LVU56
 103:Src/adc.c     ****     GPIO_InitStruct.Mode = GPIO_MODE_ANALOG;
 196              		.loc 1 103 5 view .LVU57
 103:Src/adc.c     ****     GPIO_InitStruct.Mode = GPIO_MODE_ANALOG;
 197              		.loc 1 103 25 is_stmt 0 view .LVU58
 198 0042 0323     		movs	r3, #3
 199 0044 0393     		str	r3, [sp, #12]
 104:Src/adc.c     ****     GPIO_InitStruct.Pull = GPIO_NOPULL;
 200              		.loc 1 104 5 is_stmt 1 view .LVU59
 104:Src/adc.c     ****     GPIO_InitStruct.Pull = GPIO_NOPULL;
 201              		.loc 1 104 26 is_stmt 0 view .LVU60
 202 0046 0493     		str	r3, [sp, #16]
 105:Src/adc.c     ****     HAL_GPIO_Init(GPIOA, &GPIO_InitStruct);
 203              		.loc 1 105 5 is_stmt 1 view .LVU61
 106:Src/adc.c     **** 
 204              		.loc 1 106 5 view .LVU62
 205 0048 9020     		movs	r0, #144
 206 004a 03A9     		add	r1, sp, #12
 207 004c C005     		lsls	r0, r0, #23
 208 004e FFF7FEFF 		bl	HAL_GPIO_Init
 209              	.LVL7:
 210              		.loc 1 112 1 is_stmt 0 view .LVU63
 211 0052 E1E7     		b	.L6
 212              	.L10:
 213              		.align	2
 214              	.L9:
ARM GAS  /var/folders/4h/7vm9s8w13t95ghm4btcrtdl80000gn/T//cc6XmIpy.s 			page 7


 215 0054 00240140 		.word	1073816576
 216 0058 00100240 		.word	1073876992
 217              		.cfi_endproc
 218              	.LFE44:
 220              		.section	.text.HAL_ADC_MspDeInit,"ax",%progbits
 221              		.align	1
 222              		.global	HAL_ADC_MspDeInit
 223              		.syntax unified
 224              		.code	16
 225              		.thumb_func
 227              	HAL_ADC_MspDeInit:
 228              	.LVL8:
 229              	.LFB45:
 113:Src/adc.c     **** 
 114:Src/adc.c     **** void HAL_ADC_MspDeInit(ADC_HandleTypeDef* adcHandle)
 115:Src/adc.c     **** {
 230              		.loc 1 115 1 is_stmt 1 view -0
 231              		.cfi_startproc
 232              		@ args = 0, pretend = 0, frame = 0
 233              		@ frame_needed = 0, uses_anonymous_args = 0
 234              		.loc 1 115 1 is_stmt 0 view .LVU65
 235 0000 10B5     		push	{r4, lr}
 236              	.LCFI3:
 237              		.cfi_def_cfa_offset 8
 238              		.cfi_offset 4, -8
 239              		.cfi_offset 14, -4
 116:Src/adc.c     **** 
 117:Src/adc.c     ****   if(adcHandle->Instance==ADC1)
 240              		.loc 1 117 3 is_stmt 1 view .LVU66
 241              		.loc 1 117 15 is_stmt 0 view .LVU67
 242 0002 0268     		ldr	r2, [r0]
 243              		.loc 1 117 5 view .LVU68
 244 0004 074B     		ldr	r3, .L14
 245 0006 9A42     		cmp	r2, r3
 246 0008 00D0     		beq	.L13
 247              	.LVL9:
 248              	.L11:
 118:Src/adc.c     ****   {
 119:Src/adc.c     ****   /* USER CODE BEGIN ADC1_MspDeInit 0 */
 120:Src/adc.c     **** 
 121:Src/adc.c     ****   /* USER CODE END ADC1_MspDeInit 0 */
 122:Src/adc.c     ****     /* Peripheral clock disable */
 123:Src/adc.c     ****     __HAL_RCC_ADC1_CLK_DISABLE();
 124:Src/adc.c     **** 
 125:Src/adc.c     ****     /**ADC GPIO Configuration
 126:Src/adc.c     ****     PA0     ------> ADC_IN0
 127:Src/adc.c     ****     PA1     ------> ADC_IN1
 128:Src/adc.c     ****     */
 129:Src/adc.c     ****     HAL_GPIO_DeInit(GPIOA, GPIO_PIN_0|GPIO_PIN_1);
 130:Src/adc.c     **** 
 131:Src/adc.c     ****   /* USER CODE BEGIN ADC1_MspDeInit 1 */
 132:Src/adc.c     **** 
 133:Src/adc.c     ****   /* USER CODE END ADC1_MspDeInit 1 */
 134:Src/adc.c     ****   }
 135:Src/adc.c     **** }
 249              		.loc 1 135 1 view .LVU69
 250              		@ sp needed
ARM GAS  /var/folders/4h/7vm9s8w13t95ghm4btcrtdl80000gn/T//cc6XmIpy.s 			page 8


 251 000a 10BD     		pop	{r4, pc}
 252              	.LVL10:
 253              	.L13:
 123:Src/adc.c     **** 
 254              		.loc 1 123 5 is_stmt 1 view .LVU70
 255 000c 064A     		ldr	r2, .L14+4
 256 000e 9369     		ldr	r3, [r2, #24]
 257 0010 0649     		ldr	r1, .L14+8
 258 0012 0B40     		ands	r3, r1
 259 0014 9361     		str	r3, [r2, #24]
 129:Src/adc.c     **** 
 260              		.loc 1 129 5 view .LVU71
 261 0016 9020     		movs	r0, #144
 262              	.LVL11:
 129:Src/adc.c     **** 
 263              		.loc 1 129 5 is_stmt 0 view .LVU72
 264 0018 0321     		movs	r1, #3
 265 001a C005     		lsls	r0, r0, #23
 266 001c FFF7FEFF 		bl	HAL_GPIO_DeInit
 267              	.LVL12:
 268              		.loc 1 135 1 view .LVU73
 269 0020 F3E7     		b	.L11
 270              	.L15:
 271 0022 C046     		.align	2
 272              	.L14:
 273 0024 00240140 		.word	1073816576
 274 0028 00100240 		.word	1073876992
 275 002c FFFDFFFF 		.word	-513
 276              		.cfi_endproc
 277              	.LFE45:
 279              		.section	.text.read_adc_channel,"ax",%progbits
 280              		.align	1
 281              		.global	read_adc_channel
 282              		.syntax unified
 283              		.code	16
 284              		.thumb_func
 286              	read_adc_channel:
 287              	.LVL13:
 288              	.LFB46:
 136:Src/adc.c     **** 
 137:Src/adc.c     **** /* USER CODE BEGIN 1 */
 138:Src/adc.c     **** 
 139:Src/adc.c     **** uint16_t read_adc_channel(uint8_t channel) {
 289              		.loc 1 139 44 is_stmt 1 view -0
 290              		.cfi_startproc
 291              		@ args = 0, pretend = 0, frame = 16
 292              		@ frame_needed = 0, uses_anonymous_args = 0
 293              		.loc 1 139 44 is_stmt 0 view .LVU75
 294 0000 30B5     		push	{r4, r5, lr}
 295              	.LCFI4:
 296              		.cfi_def_cfa_offset 12
 297              		.cfi_offset 4, -12
 298              		.cfi_offset 5, -8
 299              		.cfi_offset 14, -4
 300 0002 85B0     		sub	sp, sp, #20
 301              	.LCFI5:
 302              		.cfi_def_cfa_offset 32
ARM GAS  /var/folders/4h/7vm9s8w13t95ghm4btcrtdl80000gn/T//cc6XmIpy.s 			page 9


 303 0004 0400     		movs	r4, r0
 140:Src/adc.c     **** 	ADC_ChannelConfTypeDef sConfig = {0};
 304              		.loc 1 140 2 is_stmt 1 view .LVU76
 305              		.loc 1 140 25 is_stmt 0 view .LVU77
 306 0006 0C22     		movs	r2, #12
 307 0008 0021     		movs	r1, #0
 308 000a 01A8     		add	r0, sp, #4
 309              	.LVL14:
 310              		.loc 1 140 25 view .LVU78
 311 000c FFF7FEFF 		bl	memset
 312              	.LVL15:
 141:Src/adc.c     **** 	switch(channel) {
 313              		.loc 1 141 2 is_stmt 1 view .LVU79
 314 0010 002C     		cmp	r4, #0
 315 0012 03D0     		beq	.L17
 316 0014 012C     		cmp	r4, #1
 317 0016 28D1     		bne	.L18
 142:Src/adc.c     **** 		case 0:
 143:Src/adc.c     **** 			sConfig.Channel = ADC_CHANNEL_0;
 144:Src/adc.c     **** 			break;
 145:Src/adc.c     **** 		case 1:
 146:Src/adc.c     **** 			sConfig.Channel = ADC_CHANNEL_1;
 318              		.loc 1 146 4 view .LVU80
 319              		.loc 1 146 20 is_stmt 0 view .LVU81
 320 0018 0123     		movs	r3, #1
 321 001a 0193     		str	r3, [sp, #4]
 147:Src/adc.c     **** 			break;
 322              		.loc 1 147 4 is_stmt 1 view .LVU82
 323              	.L17:
 148:Src/adc.c     **** 		default:
 149:Src/adc.c     **** 			Error_Handler();
 150:Src/adc.c     ****             break;
 151:Src/adc.c     **** 	}
 152:Src/adc.c     **** 	sConfig.SamplingTime = ADC_SAMPLETIME_1CYCLE_5;
 324              		.loc 1 152 2 view .LVU83
 325              		.loc 1 152 23 is_stmt 0 view .LVU84
 326 001c 8023     		movs	r3, #128
 327 001e 5B05     		lsls	r3, r3, #21
 328 0020 0393     		str	r3, [sp, #12]
 153:Src/adc.c     **** 
 154:Src/adc.c     **** 	sConfig.Rank = ADC_RANK_CHANNEL_NUMBER;
 329              		.loc 1 154 2 is_stmt 1 view .LVU85
 330              		.loc 1 154 15 is_stmt 0 view .LVU86
 331 0022 8023     		movs	r3, #128
 332 0024 5B01     		lsls	r3, r3, #5
 333 0026 0293     		str	r3, [sp, #8]
 155:Src/adc.c     **** 	if (HAL_ADC_ConfigChannel(&hadc, &sConfig) != HAL_OK) Error_Handler();
 334              		.loc 1 155 2 is_stmt 1 view .LVU87
 335              		.loc 1 155 6 is_stmt 0 view .LVU88
 336 0028 1448     		ldr	r0, .L23
 337 002a 01A9     		add	r1, sp, #4
 338 002c FFF7FEFF 		bl	HAL_ADC_ConfigChannel
 339              	.LVL16:
 340              		.loc 1 155 5 discriminator 1 view .LVU89
 341 0030 0028     		cmp	r0, #0
 342 0032 1DD1     		bne	.L21
 343              	.L19:
ARM GAS  /var/folders/4h/7vm9s8w13t95ghm4btcrtdl80000gn/T//cc6XmIpy.s 			page 10


 156:Src/adc.c     **** 
 157:Src/adc.c     **** 	HAL_ADC_Start(&hadc);
 344              		.loc 1 157 2 is_stmt 1 view .LVU90
 345 0034 114C     		ldr	r4, .L23
 346              	.LVL17:
 347              		.loc 1 157 2 is_stmt 0 view .LVU91
 348 0036 2000     		movs	r0, r4
 349 0038 FFF7FEFF 		bl	HAL_ADC_Start
 350              	.LVL18:
 158:Src/adc.c     **** 	HAL_ADC_PollForConversion(&hadc, 1000);
 351              		.loc 1 158 2 is_stmt 1 view .LVU92
 352 003c FA21     		movs	r1, #250
 353 003e 8900     		lsls	r1, r1, #2
 354 0040 2000     		movs	r0, r4
 355 0042 FFF7FEFF 		bl	HAL_ADC_PollForConversion
 356              	.LVL19:
 159:Src/adc.c     **** 	uint16_t tmp_value = HAL_ADC_GetValue(&hadc);
 357              		.loc 1 159 2 view .LVU93
 358              		.loc 1 159 23 is_stmt 0 view .LVU94
 359 0046 2000     		movs	r0, r4
 360 0048 FFF7FEFF 		bl	HAL_ADC_GetValue
 361              	.LVL20:
 362              		.loc 1 159 11 discriminator 1 view .LVU95
 363 004c 85B2     		uxth	r5, r0
 364              	.LVL21:
 160:Src/adc.c     **** 	HAL_ADC_Stop(&hadc);
 365              		.loc 1 160 2 is_stmt 1 view .LVU96
 366 004e 2000     		movs	r0, r4
 367 0050 FFF7FEFF 		bl	HAL_ADC_Stop
 368              	.LVL22:
 161:Src/adc.c     **** 
 162:Src/adc.c     **** 	sConfig.Rank = ADC_RANK_NONE;
 369              		.loc 1 162 2 view .LVU97
 370              		.loc 1 162 15 is_stmt 0 view .LVU98
 371 0054 0A4B     		ldr	r3, .L23+4
 372 0056 0293     		str	r3, [sp, #8]
 163:Src/adc.c     **** 	if (HAL_ADC_ConfigChannel(&hadc, &sConfig) != HAL_OK) Error_Handler();
 373              		.loc 1 163 2 is_stmt 1 view .LVU99
 374              		.loc 1 163 6 is_stmt 0 view .LVU100
 375 0058 01A9     		add	r1, sp, #4
 376 005a 2000     		movs	r0, r4
 377 005c FFF7FEFF 		bl	HAL_ADC_ConfigChannel
 378              	.LVL23:
 379              		.loc 1 163 5 discriminator 1 view .LVU101
 380 0060 0028     		cmp	r0, #0
 381 0062 08D1     		bne	.L22
 382              	.L20:
 164:Src/adc.c     **** 
 165:Src/adc.c     **** 	return tmp_value;
 383              		.loc 1 165 2 is_stmt 1 view .LVU102
 166:Src/adc.c     **** }
 384              		.loc 1 166 1 is_stmt 0 view .LVU103
 385 0064 2800     		movs	r0, r5
 386 0066 05B0     		add	sp, sp, #20
 387              		@ sp needed
 388              	.LVL24:
 389              		.loc 1 166 1 view .LVU104
ARM GAS  /var/folders/4h/7vm9s8w13t95ghm4btcrtdl80000gn/T//cc6XmIpy.s 			page 11


 390 0068 30BD     		pop	{r4, r5, pc}
 391              	.LVL25:
 392              	.L18:
 149:Src/adc.c     ****             break;
 393              		.loc 1 149 4 is_stmt 1 view .LVU105
 394 006a FFF7FEFF 		bl	Error_Handler
 395              	.LVL26:
 150:Src/adc.c     **** 	}
 396              		.loc 1 150 13 view .LVU106
 397 006e D5E7     		b	.L17
 398              	.L21:
 155:Src/adc.c     **** 
 399              		.loc 1 155 56 discriminator 1 view .LVU107
 400 0070 FFF7FEFF 		bl	Error_Handler
 401              	.LVL27:
 402 0074 DEE7     		b	.L19
 403              	.LVL28:
 404              	.L22:
 163:Src/adc.c     **** 
 405              		.loc 1 163 56 discriminator 1 view .LVU108
 406 0076 FFF7FEFF 		bl	Error_Handler
 407              	.LVL29:
 408 007a F3E7     		b	.L20
 409              	.L24:
 410              		.align	2
 411              	.L23:
 412 007c 00000000 		.word	hadc
 413 0080 01100000 		.word	4097
 414              		.cfi_endproc
 415              	.LFE46:
 417              		.section	.text.read_adc_channel_0,"ax",%progbits
 418              		.align	1
 419              		.global	read_adc_channel_0
 420              		.syntax unified
 421              		.code	16
 422              		.thumb_func
 424              	read_adc_channel_0:
 425              	.LFB47:
 167:Src/adc.c     **** 
 168:Src/adc.c     **** 
 169:Src/adc.c     **** uint16_t read_adc_channel_0(void) {
 426              		.loc 1 169 35 view -0
 427              		.cfi_startproc
 428              		@ args = 0, pretend = 0, frame = 16
 429              		@ frame_needed = 0, uses_anonymous_args = 0
 430 0000 30B5     		push	{r4, r5, lr}
 431              	.LCFI6:
 432              		.cfi_def_cfa_offset 12
 433              		.cfi_offset 4, -12
 434              		.cfi_offset 5, -8
 435              		.cfi_offset 14, -4
 436 0002 85B0     		sub	sp, sp, #20
 437              	.LCFI7:
 438              		.cfi_def_cfa_offset 32
 170:Src/adc.c     **** 	ADC_ChannelConfTypeDef sConfig = {0};
 439              		.loc 1 170 2 view .LVU110
 440              		.loc 1 170 25 is_stmt 0 view .LVU111
ARM GAS  /var/folders/4h/7vm9s8w13t95ghm4btcrtdl80000gn/T//cc6XmIpy.s 			page 12


 441 0004 0C22     		movs	r2, #12
 442 0006 0021     		movs	r1, #0
 443 0008 01A8     		add	r0, sp, #4
 444 000a FFF7FEFF 		bl	memset
 445              	.LVL30:
 171:Src/adc.c     **** 	sConfig.Channel = ADC_CHANNEL_0;
 446              		.loc 1 171 2 is_stmt 1 view .LVU112
 172:Src/adc.c     **** 	sConfig.SamplingTime = ADC_SAMPLETIME_1CYCLE_5;
 447              		.loc 1 172 2 view .LVU113
 448              		.loc 1 172 23 is_stmt 0 view .LVU114
 449 000e 8023     		movs	r3, #128
 450 0010 5B05     		lsls	r3, r3, #21
 451 0012 0393     		str	r3, [sp, #12]
 173:Src/adc.c     **** 
 174:Src/adc.c     **** 	sConfig.Rank = ADC_RANK_CHANNEL_NUMBER;
 452              		.loc 1 174 2 is_stmt 1 view .LVU115
 453              		.loc 1 174 15 is_stmt 0 view .LVU116
 454 0014 8023     		movs	r3, #128
 455 0016 5B01     		lsls	r3, r3, #5
 456 0018 0293     		str	r3, [sp, #8]
 175:Src/adc.c     **** 	if (HAL_ADC_ConfigChannel(&hadc, &sConfig) != HAL_OK) Error_Handler();
 457              		.loc 1 175 2 is_stmt 1 view .LVU117
 458              		.loc 1 175 6 is_stmt 0 view .LVU118
 459 001a 1348     		ldr	r0, .L30
 460 001c 01A9     		add	r1, sp, #4
 461 001e FFF7FEFF 		bl	HAL_ADC_ConfigChannel
 462              	.LVL31:
 463              		.loc 1 175 5 discriminator 1 view .LVU119
 464 0022 0028     		cmp	r0, #0
 465 0024 1AD1     		bne	.L28
 466              	.L26:
 176:Src/adc.c     **** 
 177:Src/adc.c     **** 	HAL_ADC_Start(&hadc);
 467              		.loc 1 177 2 is_stmt 1 view .LVU120
 468 0026 104C     		ldr	r4, .L30
 469 0028 2000     		movs	r0, r4
 470 002a FFF7FEFF 		bl	HAL_ADC_Start
 471              	.LVL32:
 178:Src/adc.c     **** 	HAL_ADC_PollForConversion(&hadc, 1000);
 472              		.loc 1 178 2 view .LVU121
 473 002e FA21     		movs	r1, #250
 474 0030 8900     		lsls	r1, r1, #2
 475 0032 2000     		movs	r0, r4
 476 0034 FFF7FEFF 		bl	HAL_ADC_PollForConversion
 477              	.LVL33:
 179:Src/adc.c     **** 	uint16_t tmp_value = HAL_ADC_GetValue(&hadc);
 478              		.loc 1 179 2 view .LVU122
 479              		.loc 1 179 23 is_stmt 0 view .LVU123
 480 0038 2000     		movs	r0, r4
 481 003a FFF7FEFF 		bl	HAL_ADC_GetValue
 482              	.LVL34:
 483              		.loc 1 179 11 discriminator 1 view .LVU124
 484 003e 85B2     		uxth	r5, r0
 485              	.LVL35:
 180:Src/adc.c     **** 	HAL_ADC_Stop(&hadc);
 486              		.loc 1 180 2 is_stmt 1 view .LVU125
 487 0040 2000     		movs	r0, r4
ARM GAS  /var/folders/4h/7vm9s8w13t95ghm4btcrtdl80000gn/T//cc6XmIpy.s 			page 13


 488 0042 FFF7FEFF 		bl	HAL_ADC_Stop
 489              	.LVL36:
 181:Src/adc.c     **** 
 182:Src/adc.c     **** 	sConfig.Rank = ADC_RANK_NONE;
 490              		.loc 1 182 2 view .LVU126
 491              		.loc 1 182 15 is_stmt 0 view .LVU127
 492 0046 094B     		ldr	r3, .L30+4
 493 0048 0293     		str	r3, [sp, #8]
 183:Src/adc.c     **** 	if (HAL_ADC_ConfigChannel(&hadc, &sConfig) != HAL_OK) Error_Handler();
 494              		.loc 1 183 2 is_stmt 1 view .LVU128
 495              		.loc 1 183 6 is_stmt 0 view .LVU129
 496 004a 01A9     		add	r1, sp, #4
 497 004c 2000     		movs	r0, r4
 498 004e FFF7FEFF 		bl	HAL_ADC_ConfigChannel
 499              	.LVL37:
 500              		.loc 1 183 5 discriminator 1 view .LVU130
 501 0052 0028     		cmp	r0, #0
 502 0054 05D1     		bne	.L29
 503              	.L27:
 184:Src/adc.c     **** 
 185:Src/adc.c     **** 	return tmp_value;
 504              		.loc 1 185 2 is_stmt 1 view .LVU131
 186:Src/adc.c     **** }
 505              		.loc 1 186 1 is_stmt 0 view .LVU132
 506 0056 2800     		movs	r0, r5
 507 0058 05B0     		add	sp, sp, #20
 508              		@ sp needed
 509              	.LVL38:
 510              		.loc 1 186 1 view .LVU133
 511 005a 30BD     		pop	{r4, r5, pc}
 512              	.LVL39:
 513              	.L28:
 175:Src/adc.c     **** 
 514              		.loc 1 175 56 is_stmt 1 discriminator 1 view .LVU134
 515 005c FFF7FEFF 		bl	Error_Handler
 516              	.LVL40:
 517 0060 E1E7     		b	.L26
 518              	.LVL41:
 519              	.L29:
 183:Src/adc.c     **** 
 520              		.loc 1 183 56 discriminator 1 view .LVU135
 521 0062 FFF7FEFF 		bl	Error_Handler
 522              	.LVL42:
 523 0066 F6E7     		b	.L27
 524              	.L31:
 525              		.align	2
 526              	.L30:
 527 0068 00000000 		.word	hadc
 528 006c 01100000 		.word	4097
 529              		.cfi_endproc
 530              	.LFE47:
 532              		.section	.text.read_adc_channel_1,"ax",%progbits
 533              		.align	1
 534              		.global	read_adc_channel_1
 535              		.syntax unified
 536              		.code	16
 537              		.thumb_func
ARM GAS  /var/folders/4h/7vm9s8w13t95ghm4btcrtdl80000gn/T//cc6XmIpy.s 			page 14


 539              	read_adc_channel_1:
 540              	.LFB48:
 187:Src/adc.c     **** 
 188:Src/adc.c     **** uint16_t read_adc_channel_1(void) {
 541              		.loc 1 188 35 view -0
 542              		.cfi_startproc
 543              		@ args = 0, pretend = 0, frame = 16
 544              		@ frame_needed = 0, uses_anonymous_args = 0
 545 0000 30B5     		push	{r4, r5, lr}
 546              	.LCFI8:
 547              		.cfi_def_cfa_offset 12
 548              		.cfi_offset 4, -12
 549              		.cfi_offset 5, -8
 550              		.cfi_offset 14, -4
 551 0002 85B0     		sub	sp, sp, #20
 552              	.LCFI9:
 553              		.cfi_def_cfa_offset 32
 189:Src/adc.c     **** 	ADC_ChannelConfTypeDef sConfig = {0};
 554              		.loc 1 189 2 view .LVU137
 555              		.loc 1 189 25 is_stmt 0 view .LVU138
 556 0004 0C22     		movs	r2, #12
 557 0006 0021     		movs	r1, #0
 558 0008 01A8     		add	r0, sp, #4
 559 000a FFF7FEFF 		bl	memset
 560              	.LVL43:
 190:Src/adc.c     **** 	sConfig.Channel = ADC_CHANNEL_1;
 561              		.loc 1 190 2 is_stmt 1 view .LVU139
 562              		.loc 1 190 18 is_stmt 0 view .LVU140
 563 000e 0123     		movs	r3, #1
 564 0010 0193     		str	r3, [sp, #4]
 191:Src/adc.c     **** 	sConfig.SamplingTime = ADC_SAMPLETIME_1CYCLE_5;
 565              		.loc 1 191 2 is_stmt 1 view .LVU141
 566              		.loc 1 191 23 is_stmt 0 view .LVU142
 567 0012 8023     		movs	r3, #128
 568 0014 5B05     		lsls	r3, r3, #21
 569 0016 0393     		str	r3, [sp, #12]
 192:Src/adc.c     **** 
 193:Src/adc.c     **** 	sConfig.Rank = ADC_RANK_CHANNEL_NUMBER;
 570              		.loc 1 193 2 is_stmt 1 view .LVU143
 571              		.loc 1 193 15 is_stmt 0 view .LVU144
 572 0018 8023     		movs	r3, #128
 573 001a 5B01     		lsls	r3, r3, #5
 574 001c 0293     		str	r3, [sp, #8]
 194:Src/adc.c     **** 	if (HAL_ADC_ConfigChannel(&hadc, &sConfig) != HAL_OK) Error_Handler();
 575              		.loc 1 194 2 is_stmt 1 view .LVU145
 576              		.loc 1 194 6 is_stmt 0 view .LVU146
 577 001e 1348     		ldr	r0, .L37
 578 0020 01A9     		add	r1, sp, #4
 579 0022 FFF7FEFF 		bl	HAL_ADC_ConfigChannel
 580              	.LVL44:
 581              		.loc 1 194 5 discriminator 1 view .LVU147
 582 0026 0028     		cmp	r0, #0
 583 0028 1AD1     		bne	.L35
 584              	.L33:
 195:Src/adc.c     **** 
 196:Src/adc.c     **** 	HAL_ADC_Start(&hadc);
 585              		.loc 1 196 2 is_stmt 1 view .LVU148
ARM GAS  /var/folders/4h/7vm9s8w13t95ghm4btcrtdl80000gn/T//cc6XmIpy.s 			page 15


 586 002a 104C     		ldr	r4, .L37
 587 002c 2000     		movs	r0, r4
 588 002e FFF7FEFF 		bl	HAL_ADC_Start
 589              	.LVL45:
 197:Src/adc.c     **** 	HAL_ADC_PollForConversion(&hadc, 1000);
 590              		.loc 1 197 2 view .LVU149
 591 0032 FA21     		movs	r1, #250
 592 0034 8900     		lsls	r1, r1, #2
 593 0036 2000     		movs	r0, r4
 594 0038 FFF7FEFF 		bl	HAL_ADC_PollForConversion
 595              	.LVL46:
 198:Src/adc.c     **** 	uint16_t tmp_value = HAL_ADC_GetValue(&hadc);
 596              		.loc 1 198 2 view .LVU150
 597              		.loc 1 198 23 is_stmt 0 view .LVU151
 598 003c 2000     		movs	r0, r4
 599 003e FFF7FEFF 		bl	HAL_ADC_GetValue
 600              	.LVL47:
 601              		.loc 1 198 11 discriminator 1 view .LVU152
 602 0042 85B2     		uxth	r5, r0
 603              	.LVL48:
 199:Src/adc.c     **** 	HAL_ADC_Stop(&hadc);
 604              		.loc 1 199 2 is_stmt 1 view .LVU153
 605 0044 2000     		movs	r0, r4
 606 0046 FFF7FEFF 		bl	HAL_ADC_Stop
 607              	.LVL49:
 200:Src/adc.c     **** 
 201:Src/adc.c     **** 	sConfig.Rank = ADC_RANK_NONE;
 608              		.loc 1 201 2 view .LVU154
 609              		.loc 1 201 15 is_stmt 0 view .LVU155
 610 004a 094B     		ldr	r3, .L37+4
 611 004c 0293     		str	r3, [sp, #8]
 202:Src/adc.c     **** 	if (HAL_ADC_ConfigChannel(&hadc, &sConfig) != HAL_OK) Error_Handler();
 612              		.loc 1 202 2 is_stmt 1 view .LVU156
 613              		.loc 1 202 6 is_stmt 0 view .LVU157
 614 004e 01A9     		add	r1, sp, #4
 615 0050 2000     		movs	r0, r4
 616 0052 FFF7FEFF 		bl	HAL_ADC_ConfigChannel
 617              	.LVL50:
 618              		.loc 1 202 5 discriminator 1 view .LVU158
 619 0056 0028     		cmp	r0, #0
 620 0058 05D1     		bne	.L36
 621              	.L34:
 203:Src/adc.c     **** 
 204:Src/adc.c     **** 	return tmp_value;
 622              		.loc 1 204 2 is_stmt 1 view .LVU159
 205:Src/adc.c     **** }
 623              		.loc 1 205 1 is_stmt 0 view .LVU160
 624 005a 2800     		movs	r0, r5
 625 005c 05B0     		add	sp, sp, #20
 626              		@ sp needed
 627              	.LVL51:
 628              		.loc 1 205 1 view .LVU161
 629 005e 30BD     		pop	{r4, r5, pc}
 630              	.LVL52:
 631              	.L35:
 194:Src/adc.c     **** 
 632              		.loc 1 194 56 is_stmt 1 discriminator 1 view .LVU162
ARM GAS  /var/folders/4h/7vm9s8w13t95ghm4btcrtdl80000gn/T//cc6XmIpy.s 			page 16


 633 0060 FFF7FEFF 		bl	Error_Handler
 634              	.LVL53:
 635 0064 E1E7     		b	.L33
 636              	.LVL54:
 637              	.L36:
 202:Src/adc.c     **** 
 638              		.loc 1 202 56 discriminator 1 view .LVU163
 639 0066 FFF7FEFF 		bl	Error_Handler
 640              	.LVL55:
 641 006a F6E7     		b	.L34
 642              	.L38:
 643              		.align	2
 644              	.L37:
 645 006c 00000000 		.word	hadc
 646 0070 01100000 		.word	4097
 647              		.cfi_endproc
 648              	.LFE48:
 650              		.global	hadc
 651              		.section	.bss.hadc,"aw",%nobits
 652              		.align	2
 655              	hadc:
 656 0000 00000000 		.space	88
 656      00000000 
 656      00000000 
 656      00000000 
 656      00000000 
 657              		.text
 658              	.Letext0:
 659              		.file 2 "/Applications/ArmGNUToolchain/13.2.Rel1/arm-none-eabi/arm-none-eabi/include/machine/_defa
 660              		.file 3 "/Applications/ArmGNUToolchain/13.2.Rel1/arm-none-eabi/arm-none-eabi/include/sys/_stdint.h
 661              		.file 4 "Drivers/CMSIS/Device/ST/STM32F0xx/Include/stm32f051x8.h"
 662              		.file 5 "Drivers/CMSIS/Device/ST/STM32F0xx/Include/stm32f0xx.h"
 663              		.file 6 "Drivers/STM32F0xx_HAL_Driver/Inc/stm32f0xx_hal_def.h"
 664              		.file 7 "Drivers/STM32F0xx_HAL_Driver/Inc/stm32f0xx_hal_gpio.h"
 665              		.file 8 "Drivers/STM32F0xx_HAL_Driver/Inc/stm32f0xx_hal_dma.h"
 666              		.file 9 "Drivers/STM32F0xx_HAL_Driver/Inc/stm32f0xx_hal_adc.h"
 667              		.file 10 "Inc/adc.h"
 668              		.file 11 "Inc/main.h"
 669              		.file 12 "<built-in>"
ARM GAS  /var/folders/4h/7vm9s8w13t95ghm4btcrtdl80000gn/T//cc6XmIpy.s 			page 17

