ARM GAS  /var/folders/4h/7vm9s8w13t95ghm4btcrtdl80000gn/T//ccaZXqoy.s 			page 1


   1              		.cpu cortex-m0
   2              		.arch armv6s-m
   3              		.fpu softvfp
   4              		.eabi_attribute 20, 1
   5              		.eabi_attribute 21, 1
   6              		.eabi_attribute 23, 3
   7              		.eabi_attribute 24, 1
   8              		.eabi_attribute 25, 1
   9              		.eabi_attribute 26, 1
  10              		.eabi_attribute 30, 1
  11              		.eabi_attribute 34, 0
  12              		.eabi_attribute 18, 4
  13              		.file	"tim.c"
  14              		.text
  15              	.Ltext0:
  16              		.cfi_sections	.debug_frame
  17              		.file 1 "Src/tim.c"
  18              		.section	.text.MX_TIM1_Init,"ax",%progbits
  19              		.align	1
  20              		.global	MX_TIM1_Init
  21              		.syntax unified
  22              		.code	16
  23              		.thumb_func
  25              	MX_TIM1_Init:
  26              	.LFB43:
   1:Src/tim.c     **** /* USER CODE BEGIN Header */
   2:Src/tim.c     **** /**
   3:Src/tim.c     ****   ******************************************************************************
   4:Src/tim.c     ****   * @file    tim.c
   5:Src/tim.c     ****   * @brief   This file provides code for the configuration
   6:Src/tim.c     ****   *          of the TIM instances.
   7:Src/tim.c     ****   ******************************************************************************
   8:Src/tim.c     ****   * @attention
   9:Src/tim.c     ****   *
  10:Src/tim.c     ****   * Copyright (c) 2024 STMicroelectronics.
  11:Src/tim.c     ****   * All rights reserved.
  12:Src/tim.c     ****   *
  13:Src/tim.c     ****   * This software is licensed under terms that can be found in the LICENSE file
  14:Src/tim.c     ****   * in the root directory of this software component.
  15:Src/tim.c     ****   * If no LICENSE file comes with this software, it is provided AS-IS.
  16:Src/tim.c     ****   *
  17:Src/tim.c     ****   ******************************************************************************
  18:Src/tim.c     ****   */
  19:Src/tim.c     **** /* USER CODE END Header */
  20:Src/tim.c     **** /* Includes ------------------------------------------------------------------*/
  21:Src/tim.c     **** #include "tim.h"
  22:Src/tim.c     **** 
  23:Src/tim.c     **** /* USER CODE BEGIN 0 */
  24:Src/tim.c     **** volatile uint32_t time_ms = 0;
  25:Src/tim.c     **** /* USER CODE END 0 */
  26:Src/tim.c     **** 
  27:Src/tim.c     **** TIM_HandleTypeDef htim1;
  28:Src/tim.c     **** 
  29:Src/tim.c     **** /* TIM1 init function */
  30:Src/tim.c     **** void MX_TIM1_Init(void)
  31:Src/tim.c     **** {
  27              		.loc 1 31 1 view -0
ARM GAS  /var/folders/4h/7vm9s8w13t95ghm4btcrtdl80000gn/T//ccaZXqoy.s 			page 2


  28              		.cfi_startproc
  29              		@ args = 0, pretend = 0, frame = 24
  30              		@ frame_needed = 0, uses_anonymous_args = 0
  31 0000 00B5     		push	{lr}
  32              	.LCFI0:
  33              		.cfi_def_cfa_offset 4
  34              		.cfi_offset 14, -4
  35 0002 87B0     		sub	sp, sp, #28
  36              	.LCFI1:
  37              		.cfi_def_cfa_offset 32
  32:Src/tim.c     **** 
  33:Src/tim.c     ****   /* USER CODE BEGIN TIM1_Init 0 */
  34:Src/tim.c     **** 
  35:Src/tim.c     ****   /* USER CODE END TIM1_Init 0 */
  36:Src/tim.c     **** 
  37:Src/tim.c     ****   TIM_ClockConfigTypeDef sClockSourceConfig = {0};
  38              		.loc 1 37 3 view .LVU1
  39              		.loc 1 37 26 is_stmt 0 view .LVU2
  40 0004 1022     		movs	r2, #16
  41 0006 0021     		movs	r1, #0
  42 0008 02A8     		add	r0, sp, #8
  43 000a FFF7FEFF 		bl	memset
  44              	.LVL0:
  38:Src/tim.c     ****   TIM_MasterConfigTypeDef sMasterConfig = {0};
  45              		.loc 1 38 3 is_stmt 1 view .LVU3
  46              		.loc 1 38 27 is_stmt 0 view .LVU4
  47 000e 0822     		movs	r2, #8
  48 0010 0021     		movs	r1, #0
  49 0012 6846     		mov	r0, sp
  50 0014 FFF7FEFF 		bl	memset
  51              	.LVL1:
  39:Src/tim.c     **** 
  40:Src/tim.c     ****   /* USER CODE BEGIN TIM1_Init 1 */
  41:Src/tim.c     **** 
  42:Src/tim.c     ****   /* USER CODE END TIM1_Init 1 */
  43:Src/tim.c     ****   htim1.Instance = TIM1;
  52              		.loc 1 43 3 is_stmt 1 view .LVU5
  53              		.loc 1 43 18 is_stmt 0 view .LVU6
  54 0018 1548     		ldr	r0, .L8
  55 001a 164B     		ldr	r3, .L8+4
  56 001c 0360     		str	r3, [r0]
  44:Src/tim.c     ****   htim1.Init.Prescaler = 0;
  57              		.loc 1 44 3 is_stmt 1 view .LVU7
  58              		.loc 1 44 24 is_stmt 0 view .LVU8
  59 001e 0023     		movs	r3, #0
  60 0020 4360     		str	r3, [r0, #4]
  45:Src/tim.c     ****   htim1.Init.CounterMode = TIM_COUNTERMODE_UP;
  61              		.loc 1 45 3 is_stmt 1 view .LVU9
  62              		.loc 1 45 26 is_stmt 0 view .LVU10
  63 0022 8360     		str	r3, [r0, #8]
  46:Src/tim.c     ****   htim1.Init.Period = 0xffff;
  64              		.loc 1 46 3 is_stmt 1 view .LVU11
  65              		.loc 1 46 21 is_stmt 0 view .LVU12
  66 0024 144A     		ldr	r2, .L8+8
  67 0026 C260     		str	r2, [r0, #12]
  47:Src/tim.c     ****   htim1.Init.ClockDivision = TIM_CLOCKDIVISION_DIV1;
  68              		.loc 1 47 3 is_stmt 1 view .LVU13
ARM GAS  /var/folders/4h/7vm9s8w13t95ghm4btcrtdl80000gn/T//ccaZXqoy.s 			page 3


  69              		.loc 1 47 28 is_stmt 0 view .LVU14
  70 0028 0361     		str	r3, [r0, #16]
  48:Src/tim.c     ****   htim1.Init.RepetitionCounter = 0;
  71              		.loc 1 48 3 is_stmt 1 view .LVU15
  72              		.loc 1 48 32 is_stmt 0 view .LVU16
  73 002a 4361     		str	r3, [r0, #20]
  49:Src/tim.c     ****   htim1.Init.AutoReloadPreload = TIM_AUTORELOAD_PRELOAD_DISABLE;
  74              		.loc 1 49 3 is_stmt 1 view .LVU17
  75              		.loc 1 49 32 is_stmt 0 view .LVU18
  76 002c 8361     		str	r3, [r0, #24]
  50:Src/tim.c     ****   if (HAL_TIM_Base_Init(&htim1) != HAL_OK)
  77              		.loc 1 50 3 is_stmt 1 view .LVU19
  78              		.loc 1 50 7 is_stmt 0 view .LVU20
  79 002e FFF7FEFF 		bl	HAL_TIM_Base_Init
  80              	.LVL2:
  81              		.loc 1 50 6 discriminator 1 view .LVU21
  82 0032 0028     		cmp	r0, #0
  83 0034 13D1     		bne	.L5
  84              	.L2:
  51:Src/tim.c     ****   {
  52:Src/tim.c     ****     Error_Handler();
  53:Src/tim.c     ****   }
  54:Src/tim.c     ****   sClockSourceConfig.ClockSource = TIM_CLOCKSOURCE_INTERNAL;
  85              		.loc 1 54 3 is_stmt 1 view .LVU22
  86              		.loc 1 54 34 is_stmt 0 view .LVU23
  87 0036 8023     		movs	r3, #128
  88 0038 5B01     		lsls	r3, r3, #5
  89 003a 0293     		str	r3, [sp, #8]
  55:Src/tim.c     ****   if (HAL_TIM_ConfigClockSource(&htim1, &sClockSourceConfig) != HAL_OK)
  90              		.loc 1 55 3 is_stmt 1 view .LVU24
  91              		.loc 1 55 7 is_stmt 0 view .LVU25
  92 003c 0C48     		ldr	r0, .L8
  93 003e 02A9     		add	r1, sp, #8
  94 0040 FFF7FEFF 		bl	HAL_TIM_ConfigClockSource
  95              	.LVL3:
  96              		.loc 1 55 6 discriminator 1 view .LVU26
  97 0044 0028     		cmp	r0, #0
  98 0046 0DD1     		bne	.L6
  99              	.L3:
  56:Src/tim.c     ****   {
  57:Src/tim.c     ****     Error_Handler();
  58:Src/tim.c     ****   }
  59:Src/tim.c     ****   sMasterConfig.MasterOutputTrigger = TIM_TRGO_RESET;
 100              		.loc 1 59 3 is_stmt 1 view .LVU27
 101              		.loc 1 59 37 is_stmt 0 view .LVU28
 102 0048 0023     		movs	r3, #0
 103 004a 0093     		str	r3, [sp]
  60:Src/tim.c     ****   sMasterConfig.MasterSlaveMode = TIM_MASTERSLAVEMODE_DISABLE;
 104              		.loc 1 60 3 is_stmt 1 view .LVU29
 105              		.loc 1 60 33 is_stmt 0 view .LVU30
 106 004c 0193     		str	r3, [sp, #4]
  61:Src/tim.c     ****   if (HAL_TIMEx_MasterConfigSynchronization(&htim1, &sMasterConfig) != HAL_OK)
 107              		.loc 1 61 3 is_stmt 1 view .LVU31
 108              		.loc 1 61 7 is_stmt 0 view .LVU32
 109 004e 0848     		ldr	r0, .L8
 110 0050 6946     		mov	r1, sp
 111 0052 FFF7FEFF 		bl	HAL_TIMEx_MasterConfigSynchronization
ARM GAS  /var/folders/4h/7vm9s8w13t95ghm4btcrtdl80000gn/T//ccaZXqoy.s 			page 4


 112              	.LVL4:
 113              		.loc 1 61 6 discriminator 1 view .LVU33
 114 0056 0028     		cmp	r0, #0
 115 0058 07D1     		bne	.L7
 116              	.L1:
  62:Src/tim.c     ****   {
  63:Src/tim.c     ****     Error_Handler();
  64:Src/tim.c     ****   }
  65:Src/tim.c     ****   /* USER CODE BEGIN TIM1_Init 2 */
  66:Src/tim.c     **** 
  67:Src/tim.c     ****   /* USER CODE END TIM1_Init 2 */
  68:Src/tim.c     **** 
  69:Src/tim.c     **** }
 117              		.loc 1 69 1 view .LVU34
 118 005a 07B0     		add	sp, sp, #28
 119              		@ sp needed
 120 005c 00BD     		pop	{pc}
 121              	.L5:
  52:Src/tim.c     ****   }
 122              		.loc 1 52 5 is_stmt 1 view .LVU35
 123 005e FFF7FEFF 		bl	Error_Handler
 124              	.LVL5:
 125 0062 E8E7     		b	.L2
 126              	.L6:
  57:Src/tim.c     ****   }
 127              		.loc 1 57 5 view .LVU36
 128 0064 FFF7FEFF 		bl	Error_Handler
 129              	.LVL6:
 130 0068 EEE7     		b	.L3
 131              	.L7:
  63:Src/tim.c     ****   }
 132              		.loc 1 63 5 view .LVU37
 133 006a FFF7FEFF 		bl	Error_Handler
 134              	.LVL7:
 135              		.loc 1 69 1 is_stmt 0 view .LVU38
 136 006e F4E7     		b	.L1
 137              	.L9:
 138              		.align	2
 139              	.L8:
 140 0070 00000000 		.word	htim1
 141 0074 002C0140 		.word	1073818624
 142 0078 FFFF0000 		.word	65535
 143              		.cfi_endproc
 144              	.LFE43:
 146              		.section	.text.HAL_TIM_Base_MspInit,"ax",%progbits
 147              		.align	1
 148              		.global	HAL_TIM_Base_MspInit
 149              		.syntax unified
 150              		.code	16
 151              		.thumb_func
 153              	HAL_TIM_Base_MspInit:
 154              	.LVL8:
 155              	.LFB44:
  70:Src/tim.c     **** 
  71:Src/tim.c     **** void HAL_TIM_Base_MspInit(TIM_HandleTypeDef* tim_baseHandle)
  72:Src/tim.c     **** {
 156              		.loc 1 72 1 is_stmt 1 view -0
ARM GAS  /var/folders/4h/7vm9s8w13t95ghm4btcrtdl80000gn/T//ccaZXqoy.s 			page 5


 157              		.cfi_startproc
 158              		@ args = 0, pretend = 0, frame = 8
 159              		@ frame_needed = 0, uses_anonymous_args = 0
 160              		.loc 1 72 1 is_stmt 0 view .LVU40
 161 0000 00B5     		push	{lr}
 162              	.LCFI2:
 163              		.cfi_def_cfa_offset 4
 164              		.cfi_offset 14, -4
 165 0002 83B0     		sub	sp, sp, #12
 166              	.LCFI3:
 167              		.cfi_def_cfa_offset 16
  73:Src/tim.c     **** 
  74:Src/tim.c     ****   if(tim_baseHandle->Instance==TIM1)
 168              		.loc 1 74 3 is_stmt 1 view .LVU41
 169              		.loc 1 74 20 is_stmt 0 view .LVU42
 170 0004 0268     		ldr	r2, [r0]
 171              		.loc 1 74 5 view .LVU43
 172 0006 0C4B     		ldr	r3, .L13
 173 0008 9A42     		cmp	r2, r3
 174 000a 01D0     		beq	.L12
 175              	.LVL9:
 176              	.L10:
  75:Src/tim.c     ****   {
  76:Src/tim.c     ****   /* USER CODE BEGIN TIM1_MspInit 0 */
  77:Src/tim.c     **** 
  78:Src/tim.c     ****   /* USER CODE END TIM1_MspInit 0 */
  79:Src/tim.c     ****     /* TIM1 clock enable */
  80:Src/tim.c     ****     __HAL_RCC_TIM1_CLK_ENABLE();
  81:Src/tim.c     **** 
  82:Src/tim.c     ****     /* TIM1 interrupt Init */
  83:Src/tim.c     ****     HAL_NVIC_SetPriority(TIM1_BRK_UP_TRG_COM_IRQn, 0, 0);
  84:Src/tim.c     ****     HAL_NVIC_EnableIRQ(TIM1_BRK_UP_TRG_COM_IRQn);
  85:Src/tim.c     ****   /* USER CODE BEGIN TIM1_MspInit 1 */
  86:Src/tim.c     **** 
  87:Src/tim.c     ****   /* USER CODE END TIM1_MspInit 1 */
  88:Src/tim.c     ****   }
  89:Src/tim.c     **** }
 177              		.loc 1 89 1 view .LVU44
 178 000c 03B0     		add	sp, sp, #12
 179              		@ sp needed
 180 000e 00BD     		pop	{pc}
 181              	.LVL10:
 182              	.L12:
  80:Src/tim.c     **** 
 183              		.loc 1 80 5 is_stmt 1 view .LVU45
 184              	.LBB2:
  80:Src/tim.c     **** 
 185              		.loc 1 80 5 view .LVU46
  80:Src/tim.c     **** 
 186              		.loc 1 80 5 view .LVU47
 187 0010 0A4B     		ldr	r3, .L13+4
 188 0012 9A69     		ldr	r2, [r3, #24]
 189 0014 8021     		movs	r1, #128
 190 0016 0901     		lsls	r1, r1, #4
 191 0018 0A43     		orrs	r2, r1
 192 001a 9A61     		str	r2, [r3, #24]
  80:Src/tim.c     **** 
ARM GAS  /var/folders/4h/7vm9s8w13t95ghm4btcrtdl80000gn/T//ccaZXqoy.s 			page 6


 193              		.loc 1 80 5 view .LVU48
 194 001c 9B69     		ldr	r3, [r3, #24]
 195 001e 0B40     		ands	r3, r1
 196 0020 0193     		str	r3, [sp, #4]
  80:Src/tim.c     **** 
 197              		.loc 1 80 5 view .LVU49
 198 0022 019B     		ldr	r3, [sp, #4]
 199              	.LBE2:
  80:Src/tim.c     **** 
 200              		.loc 1 80 5 view .LVU50
  83:Src/tim.c     ****     HAL_NVIC_EnableIRQ(TIM1_BRK_UP_TRG_COM_IRQn);
 201              		.loc 1 83 5 view .LVU51
 202 0024 0022     		movs	r2, #0
 203 0026 0021     		movs	r1, #0
 204 0028 0D20     		movs	r0, #13
 205              	.LVL11:
  83:Src/tim.c     ****     HAL_NVIC_EnableIRQ(TIM1_BRK_UP_TRG_COM_IRQn);
 206              		.loc 1 83 5 is_stmt 0 view .LVU52
 207 002a FFF7FEFF 		bl	HAL_NVIC_SetPriority
 208              	.LVL12:
  84:Src/tim.c     ****   /* USER CODE BEGIN TIM1_MspInit 1 */
 209              		.loc 1 84 5 is_stmt 1 view .LVU53
 210 002e 0D20     		movs	r0, #13
 211 0030 FFF7FEFF 		bl	HAL_NVIC_EnableIRQ
 212              	.LVL13:
 213              		.loc 1 89 1 is_stmt 0 view .LVU54
 214 0034 EAE7     		b	.L10
 215              	.L14:
 216 0036 C046     		.align	2
 217              	.L13:
 218 0038 002C0140 		.word	1073818624
 219 003c 00100240 		.word	1073876992
 220              		.cfi_endproc
 221              	.LFE44:
 223              		.section	.text.HAL_TIM_Base_MspDeInit,"ax",%progbits
 224              		.align	1
 225              		.global	HAL_TIM_Base_MspDeInit
 226              		.syntax unified
 227              		.code	16
 228              		.thumb_func
 230              	HAL_TIM_Base_MspDeInit:
 231              	.LVL14:
 232              	.LFB45:
  90:Src/tim.c     **** 
  91:Src/tim.c     **** void HAL_TIM_Base_MspDeInit(TIM_HandleTypeDef* tim_baseHandle)
  92:Src/tim.c     **** {
 233              		.loc 1 92 1 is_stmt 1 view -0
 234              		.cfi_startproc
 235              		@ args = 0, pretend = 0, frame = 0
 236              		@ frame_needed = 0, uses_anonymous_args = 0
 237              		.loc 1 92 1 is_stmt 0 view .LVU56
 238 0000 10B5     		push	{r4, lr}
 239              	.LCFI4:
 240              		.cfi_def_cfa_offset 8
 241              		.cfi_offset 4, -8
 242              		.cfi_offset 14, -4
  93:Src/tim.c     **** 
ARM GAS  /var/folders/4h/7vm9s8w13t95ghm4btcrtdl80000gn/T//ccaZXqoy.s 			page 7


  94:Src/tim.c     ****   if(tim_baseHandle->Instance==TIM1)
 243              		.loc 1 94 3 is_stmt 1 view .LVU57
 244              		.loc 1 94 20 is_stmt 0 view .LVU58
 245 0002 0268     		ldr	r2, [r0]
 246              		.loc 1 94 5 view .LVU59
 247 0004 064B     		ldr	r3, .L18
 248 0006 9A42     		cmp	r2, r3
 249 0008 00D0     		beq	.L17
 250              	.LVL15:
 251              	.L15:
  95:Src/tim.c     ****   {
  96:Src/tim.c     ****   /* USER CODE BEGIN TIM1_MspDeInit 0 */
  97:Src/tim.c     **** 
  98:Src/tim.c     ****   /* USER CODE END TIM1_MspDeInit 0 */
  99:Src/tim.c     ****     /* Peripheral clock disable */
 100:Src/tim.c     ****     __HAL_RCC_TIM1_CLK_DISABLE();
 101:Src/tim.c     **** 
 102:Src/tim.c     ****     /* TIM1 interrupt Deinit */
 103:Src/tim.c     ****     HAL_NVIC_DisableIRQ(TIM1_BRK_UP_TRG_COM_IRQn);
 104:Src/tim.c     ****   /* USER CODE BEGIN TIM1_MspDeInit 1 */
 105:Src/tim.c     **** 
 106:Src/tim.c     ****   /* USER CODE END TIM1_MspDeInit 1 */
 107:Src/tim.c     ****   }
 108:Src/tim.c     **** }
 252              		.loc 1 108 1 view .LVU60
 253              		@ sp needed
 254 000a 10BD     		pop	{r4, pc}
 255              	.LVL16:
 256              	.L17:
 100:Src/tim.c     **** 
 257              		.loc 1 100 5 is_stmt 1 view .LVU61
 258 000c 054A     		ldr	r2, .L18+4
 259 000e 9369     		ldr	r3, [r2, #24]
 260 0010 0549     		ldr	r1, .L18+8
 261 0012 0B40     		ands	r3, r1
 262 0014 9361     		str	r3, [r2, #24]
 103:Src/tim.c     ****   /* USER CODE BEGIN TIM1_MspDeInit 1 */
 263              		.loc 1 103 5 view .LVU62
 264 0016 0D20     		movs	r0, #13
 265              	.LVL17:
 103:Src/tim.c     ****   /* USER CODE BEGIN TIM1_MspDeInit 1 */
 266              		.loc 1 103 5 is_stmt 0 view .LVU63
 267 0018 FFF7FEFF 		bl	HAL_NVIC_DisableIRQ
 268              	.LVL18:
 269              		.loc 1 108 1 view .LVU64
 270 001c F5E7     		b	.L15
 271              	.L19:
 272 001e C046     		.align	2
 273              	.L18:
 274 0020 002C0140 		.word	1073818624
 275 0024 00100240 		.word	1073876992
 276 0028 FFF7FFFF 		.word	-2049
 277              		.cfi_endproc
 278              	.LFE45:
 280              		.section	.text.HAL_TIM_PeriodElapsedCallback,"ax",%progbits
 281              		.align	1
 282              		.global	HAL_TIM_PeriodElapsedCallback
ARM GAS  /var/folders/4h/7vm9s8w13t95ghm4btcrtdl80000gn/T//ccaZXqoy.s 			page 8


 283              		.syntax unified
 284              		.code	16
 285              		.thumb_func
 287              	HAL_TIM_PeriodElapsedCallback:
 288              	.LVL19:
 289              	.LFB46:
 109:Src/tim.c     **** 
 110:Src/tim.c     **** /* USER CODE BEGIN 1 */
 111:Src/tim.c     **** 
 112:Src/tim.c     **** // Called after each timer update interrupt
 113:Src/tim.c     **** void HAL_TIM_PeriodElapsedCallback(TIM_HandleTypeDef *htim) {
 290              		.loc 1 113 61 is_stmt 1 view -0
 291              		.cfi_startproc
 292              		@ args = 0, pretend = 0, frame = 0
 293              		@ frame_needed = 0, uses_anonymous_args = 0
 294              		@ link register save eliminated.
 114:Src/tim.c     **** 	if (htim->Instance==TIM1) {
 295              		.loc 1 114 2 view .LVU66
 296              		.loc 1 114 10 is_stmt 0 view .LVU67
 297 0000 0268     		ldr	r2, [r0]
 298              		.loc 1 114 5 view .LVU68
 299 0002 044B     		ldr	r3, .L23
 300 0004 9A42     		cmp	r2, r3
 301 0006 00D0     		beq	.L22
 302              	.L20:
 115:Src/tim.c     **** 		time_ms++;
 116:Src/tim.c     **** 	}
 117:Src/tim.c     **** }
 303              		.loc 1 117 1 view .LVU69
 304              		@ sp needed
 305 0008 7047     		bx	lr
 306              	.L22:
 115:Src/tim.c     **** 		time_ms++;
 307              		.loc 1 115 3 is_stmt 1 view .LVU70
 115:Src/tim.c     **** 		time_ms++;
 308              		.loc 1 115 10 is_stmt 0 view .LVU71
 309 000a 034A     		ldr	r2, .L23+4
 310 000c 1368     		ldr	r3, [r2]
 311 000e 0133     		adds	r3, r3, #1
 312 0010 1360     		str	r3, [r2]
 313              		.loc 1 117 1 view .LVU72
 314 0012 F9E7     		b	.L20
 315              	.L24:
 316              		.align	2
 317              	.L23:
 318 0014 002C0140 		.word	1073818624
 319 0018 00000000 		.word	time_ms
 320              		.cfi_endproc
 321              	.LFE46:
 323              		.section	.text.get_time_ms,"ax",%progbits
 324              		.align	1
 325              		.global	get_time_ms
 326              		.syntax unified
 327              		.code	16
 328              		.thumb_func
 330              	get_time_ms:
 331              	.LFB47:
ARM GAS  /var/folders/4h/7vm9s8w13t95ghm4btcrtdl80000gn/T//ccaZXqoy.s 			page 9


 118:Src/tim.c     **** 
 119:Src/tim.c     **** // Getter function for time based on timer 1
 120:Src/tim.c     **** uint32_t get_time_ms(void) {
 332              		.loc 1 120 28 is_stmt 1 view -0
 333              		.cfi_startproc
 334              		@ args = 0, pretend = 0, frame = 0
 335              		@ frame_needed = 0, uses_anonymous_args = 0
 336              		@ link register save eliminated.
 121:Src/tim.c     **** 	return time_ms;
 337              		.loc 1 121 2 view .LVU74
 338              		.loc 1 121 9 is_stmt 0 view .LVU75
 339 0000 014B     		ldr	r3, .L26
 340 0002 1868     		ldr	r0, [r3]
 122:Src/tim.c     **** }
 341              		.loc 1 122 1 view .LVU76
 342              		@ sp needed
 343 0004 7047     		bx	lr
 344              	.L27:
 345 0006 C046     		.align	2
 346              	.L26:
 347 0008 00000000 		.word	time_ms
 348              		.cfi_endproc
 349              	.LFE47:
 351              		.section	.text.delay_ms,"ax",%progbits
 352              		.align	1
 353              		.global	delay_ms
 354              		.syntax unified
 355              		.code	16
 356              		.thumb_func
 358              	delay_ms:
 359              	.LVL20:
 360              	.LFB48:
 123:Src/tim.c     **** 
 124:Src/tim.c     **** // Delay function based on timer 1
 125:Src/tim.c     **** void delay_ms(uint32_t delay_time) {
 361              		.loc 1 125 36 is_stmt 1 view -0
 362              		.cfi_startproc
 363              		@ args = 0, pretend = 0, frame = 0
 364              		@ frame_needed = 0, uses_anonymous_args = 0
 365              		@ link register save eliminated.
 126:Src/tim.c     **** 	const uint32_t wait_time = time_ms + delay_time;
 366              		.loc 1 126 2 view .LVU78
 367              		.loc 1 126 37 is_stmt 0 view .LVU79
 368 0000 034B     		ldr	r3, .L30
 369 0002 1B68     		ldr	r3, [r3]
 370              		.loc 1 126 17 view .LVU80
 371 0004 1818     		adds	r0, r3, r0
 372              	.LVL21:
 127:Src/tim.c     **** 	while (time_ms < wait_time);
 373              		.loc 1 127 2 is_stmt 1 view .LVU81
 374              	.L29:
 375              		.loc 1 127 17 discriminator 1 view .LVU82
 376 0006 024B     		ldr	r3, .L30
 377 0008 1B68     		ldr	r3, [r3]
 378 000a 8342     		cmp	r3, r0
 379 000c FBD3     		bcc	.L29
 128:Src/tim.c     **** }
ARM GAS  /var/folders/4h/7vm9s8w13t95ghm4btcrtdl80000gn/T//ccaZXqoy.s 			page 10


 380              		.loc 1 128 1 is_stmt 0 view .LVU83
 381              		@ sp needed
 382 000e 7047     		bx	lr
 383              	.L31:
 384              		.align	2
 385              	.L30:
 386 0010 00000000 		.word	time_ms
 387              		.cfi_endproc
 388              	.LFE48:
 390              		.global	htim1
 391              		.section	.bss.htim1,"aw",%nobits
 392              		.align	2
 395              	htim1:
 396 0000 00000000 		.space	72
 396      00000000 
 396      00000000 
 396      00000000 
 396      00000000 
 397              		.global	time_ms
 398              		.section	.bss.time_ms,"aw",%nobits
 399              		.align	2
 402              	time_ms:
 403 0000 00000000 		.space	4
 404              		.text
 405              	.Letext0:
 406              		.file 2 "Drivers/CMSIS/Device/ST/STM32F0xx/Include/stm32f051x8.h"
 407              		.file 3 "/Applications/ArmGNUToolchain/13.2.Rel1/arm-none-eabi/arm-none-eabi/include/machine/_defa
 408              		.file 4 "/Applications/ArmGNUToolchain/13.2.Rel1/arm-none-eabi/arm-none-eabi/include/sys/_stdint.h
 409              		.file 5 "Drivers/STM32F0xx_HAL_Driver/Inc/stm32f0xx_hal_def.h"
 410              		.file 6 "Drivers/STM32F0xx_HAL_Driver/Inc/stm32f0xx_hal_dma.h"
 411              		.file 7 "Drivers/STM32F0xx_HAL_Driver/Inc/stm32f0xx_hal_tim.h"
 412              		.file 8 "Inc/tim.h"
 413              		.file 9 "Drivers/STM32F0xx_HAL_Driver/Inc/stm32f0xx_hal_cortex.h"
 414              		.file 10 "Drivers/STM32F0xx_HAL_Driver/Inc/stm32f0xx_hal_tim_ex.h"
 415              		.file 11 "Inc/main.h"
 416              		.file 12 "<built-in>"
ARM GAS  /var/folders/4h/7vm9s8w13t95ghm4btcrtdl80000gn/T//ccaZXqoy.s 			page 11

